ccopy_reg
_reconstructor
p0
(cscriptcraft.core.GameMap
GameMap
p1
c__builtin__
list
p2
(lp3
(lp4
g0
(cscriptcraft.core.Field
Field
p5
c__builtin__
tuple
p6
(I1
I0
tp7
tp8
Rp9
ag0
(g5
g6
(I1
I0
tp10
tp11
Rp12
ag0
(g5
g6
(I1
I0
tp13
tp14
Rp15
ag0
(g5
g6
(I1
I0
tp16
tp17
Rp18
ag0
(g5
g6
(I1
I0
tp19
tp20
Rp21
ag0
(g5
g6
(I1
I0
tp22
tp23
Rp24
ag0
(g5
g6
(I1
I0
tp25
tp26
Rp27
ag0
(g5
g6
(I1
I0
tp28
tp29
Rp30
ag0
(g5
g6
(I1
I0
tp31
tp32
Rp33
ag0
(g5
g6
(I1
I0
tp34
tp35
Rp36
ag0
(g5
g6
(I1
I0
tp37
tp38
Rp39
ag0
(g5
g6
(I1
I0
tp40
tp41
Rp42
ag0
(g5
g6
(I1
I0
tp43
tp44
Rp45
ag0
(g5
g6
(I1
I0
tp46
tp47
Rp48
ag0
(g5
g6
(I1
I0
tp49
tp50
Rp51
ag0
(g5
g6
(I1
I0
tp52
tp53
Rp54
ag0
(g5
g6
(I1
I0
tp55
tp56
Rp57
ag0
(g5
g6
(I1
I0
tp58
tp59
Rp60
ag0
(g5
g6
(I1
I0
tp61
tp62
Rp63
ag0
(g5
g6
(I1
I0
tp64
tp65
Rp66
ag0
(g5
g6
(I1
I0
tp67
tp68
Rp69
ag0
(g5
g6
(I1
I0
tp70
tp71
Rp72
ag0
(g5
g6
(I1
I0
tp73
tp74
Rp75
ag0
(g5
g6
(I1
I0
tp76
tp77
Rp78
ag0
(g5
g6
(I1
I0
tp79
tp80
Rp81
ag0
(g5
g6
(I1
I0
tp82
tp83
Rp84
ag0
(g5
g6
(I1
I0
tp85
tp86
Rp87
ag0
(g5
g6
(I1
I0
tp88
tp89
Rp90
ag0
(g5
g6
(I1
I0
tp91
tp92
Rp93
ag0
(g5
g6
(I1
I0
tp94
tp95
Rp96
ag0
(g5
g6
(I1
I0
tp97
tp98
Rp99
ag0
(g5
g6
(I1
I0
tp100
tp101
Rp102
ag0
(g5
g6
(I1
I0
tp103
tp104
Rp105
ag0
(g5
g6
(I1
I0
tp106
tp107
Rp108
ag0
(g5
g6
(I1
I0
tp109
tp110
Rp111
ag0
(g5
g6
(I1
I0
tp112
tp113
Rp114
ag0
(g5
g6
(I1
I0
tp115
tp116
Rp117
ag0
(g5
g6
(I1
I0
tp118
tp119
Rp120
ag0
(g5
g6
(I1
I0
tp121
tp122
Rp123
ag0
(g5
g6
(I1
I0
tp124
tp125
Rp126
ag0
(g5
g6
(I1
I0
tp127
tp128
Rp129
ag0
(g5
g6
(I1
I0
tp130
tp131
Rp132
ag0
(g5
g6
(I1
I0
tp133
tp134
Rp135
ag0
(g5
g6
(I1
I0
tp136
tp137
Rp138
ag0
(g5
g6
(I1
I0
tp139
tp140
Rp141
ag0
(g5
g6
(I1
I0
tp142
tp143
Rp144
ag0
(g5
g6
(I1
I0
tp145
tp146
Rp147
ag0
(g5
g6
(I1
I0
tp148
tp149
Rp150
ag0
(g5
g6
(I1
I0
tp151
tp152
Rp153
ag0
(g5
g6
(I1
I0
tp154
tp155
Rp156
ag0
(g5
g6
(I1
I0
tp157
tp158
Rp159
ag0
(g5
g6
(I1
I0
tp160
tp161
Rp162
ag0
(g5
g6
(I1
I0
tp163
tp164
Rp165
ag0
(g5
g6
(I1
I0
tp166
tp167
Rp168
ag0
(g5
g6
(I1
I0
tp169
tp170
Rp171
ag0
(g5
g6
(I1
I0
tp172
tp173
Rp174
ag0
(g5
g6
(I1
I0
tp175
tp176
Rp177
ag0
(g5
g6
(I1
I0
tp178
tp179
Rp180
ag0
(g5
g6
(I1
I0
tp181
tp182
Rp183
ag0
(g5
g6
(I1
I0
tp184
tp185
Rp186
ag0
(g5
g6
(I1
I0
tp187
tp188
Rp189
ag0
(g5
g6
(I1
I0
tp190
tp191
Rp192
ag0
(g5
g6
(I1
I0
tp193
tp194
Rp195
ag0
(g5
g6
(I1
I0
tp196
tp197
Rp198
aa(lp199
g0
(g5
g6
(I1
I0
tp200
tp201
Rp202
ag0
(g5
g6
(I1
I0
tp203
tp204
Rp205
ag0
(g5
g6
(I1
I0
tp206
tp207
Rp208
ag0
(g5
g6
(I1
I0
tp209
tp210
Rp211
ag0
(g5
g6
(I1
I0
tp212
tp213
Rp214
ag0
(g5
g6
(I1
I0
tp215
tp216
Rp217
ag0
(g5
g6
(I1
I0
tp218
tp219
Rp220
ag0
(g5
g6
(I1
I0
tp221
tp222
Rp223
ag0
(g5
g6
(I1
I0
tp224
tp225
Rp226
ag0
(g5
g6
(I1
I0
tp227
tp228
Rp229
ag0
(g5
g6
(I1
I0
tp230
tp231
Rp232
ag0
(g5
g6
(I1
I0
tp233
tp234
Rp235
ag0
(g5
g6
(I1
I0
tp236
tp237
Rp238
ag0
(g5
g6
(I1
I0
tp239
tp240
Rp241
ag0
(g5
g6
(I1
I0
tp242
tp243
Rp244
ag0
(g5
g6
(I1
I0
tp245
tp246
Rp247
ag0
(g5
g6
(I1
I0
tp248
tp249
Rp250
ag0
(g5
g6
(I1
I0
tp251
tp252
Rp253
ag0
(g5
g6
(I1
I0
tp254
tp255
Rp256
ag0
(g5
g6
(I1
I0
tp257
tp258
Rp259
ag0
(g5
g6
(I1
I0
tp260
tp261
Rp262
ag0
(g5
g6
(I1
I0
tp263
tp264
Rp265
ag0
(g5
g6
(I1
I0
tp266
tp267
Rp268
ag0
(g5
g6
(I1
I0
tp269
tp270
Rp271
ag0
(g5
g6
(I1
I0
tp272
tp273
Rp274
ag0
(g5
g6
(I1
I0
tp275
tp276
Rp277
ag0
(g5
g6
(I1
I0
tp278
tp279
Rp280
ag0
(g5
g6
(I1
I0
tp281
tp282
Rp283
ag0
(g5
g6
(I1
I0
tp284
tp285
Rp286
ag0
(g5
g6
(I1
I0
tp287
tp288
Rp289
ag0
(g5
g6
(I1
I0
tp290
tp291
Rp292
ag0
(g5
g6
(I1
I0
tp293
tp294
Rp295
ag0
(g5
g6
(I1
I0
tp296
tp297
Rp298
ag0
(g5
g6
(I1
I0
tp299
tp300
Rp301
ag0
(g5
g6
(I1
I0
tp302
tp303
Rp304
ag0
(g5
g6
(I1
I0
tp305
tp306
Rp307
ag0
(g5
g6
(I1
I0
tp308
tp309
Rp310
ag0
(g5
g6
(I1
I0
tp311
tp312
Rp313
ag0
(g5
g6
(I1
I0
tp314
tp315
Rp316
ag0
(g5
g6
(I1
I0
tp317
tp318
Rp319
ag0
(g5
g6
(I1
I0
tp320
tp321
Rp322
ag0
(g5
g6
(I1
I0
tp323
tp324
Rp325
ag0
(g5
g6
(I1
I0
tp326
tp327
Rp328
ag0
(g5
g6
(I1
I0
tp329
tp330
Rp331
ag0
(g5
g6
(I1
I0
tp332
tp333
Rp334
ag0
(g5
g6
(I1
I0
tp335
tp336
Rp337
ag0
(g5
g6
(I1
I0
tp338
tp339
Rp340
ag0
(g5
g6
(I1
I0
tp341
tp342
Rp343
ag0
(g5
g6
(I1
I0
tp344
tp345
Rp346
ag0
(g5
g6
(I1
I0
tp347
tp348
Rp349
ag0
(g5
g6
(I1
I0
tp350
tp351
Rp352
ag0
(g5
g6
(I1
I0
tp353
tp354
Rp355
ag0
(g5
g6
(I1
I0
tp356
tp357
Rp358
ag0
(g5
g6
(I1
I0
tp359
tp360
Rp361
ag0
(g5
g6
(I1
I0
tp362
tp363
Rp364
ag0
(g5
g6
(I1
I0
tp365
tp366
Rp367
ag0
(g5
g6
(I1
I0
tp368
tp369
Rp370
ag0
(g5
g6
(I1
I0
tp371
tp372
Rp373
ag0
(g5
g6
(I1
I0
tp374
tp375
Rp376
ag0
(g5
g6
(I1
I0
tp377
tp378
Rp379
ag0
(g5
g6
(I1
I0
tp380
tp381
Rp382
ag0
(g5
g6
(I1
I0
tp383
tp384
Rp385
ag0
(g5
g6
(I1
I0
tp386
tp387
Rp388
ag0
(g5
g6
(I1
I0
tp389
tp390
Rp391
aa(lp392
g0
(g5
g6
(I1
I0
tp393
tp394
Rp395
ag0
(g5
g6
(I1
I0
tp396
tp397
Rp398
ag0
(g5
g6
(I1
I0
tp399
tp400
Rp401
ag0
(g5
g6
(I1
I0
tp402
tp403
Rp404
ag0
(g5
g6
(I1
I0
tp405
tp406
Rp407
ag0
(g5
g6
(I1
I0
tp408
tp409
Rp410
ag0
(g5
g6
(I1
I0
tp411
tp412
Rp413
ag0
(g5
g6
(I1
I0
tp414
tp415
Rp416
ag0
(g5
g6
(I1
I0
tp417
tp418
Rp419
ag0
(g5
g6
(I1
I0
tp420
tp421
Rp422
ag0
(g5
g6
(I1
I0
tp423
tp424
Rp425
ag0
(g5
g6
(I1
I0
tp426
tp427
Rp428
ag0
(g5
g6
(I1
I0
tp429
tp430
Rp431
ag0
(g5
g6
(I1
I0
tp432
tp433
Rp434
ag0
(g5
g6
(I1
I0
tp435
tp436
Rp437
ag0
(g5
g6
(I1
I0
tp438
tp439
Rp440
ag0
(g5
g6
(I1
I0
tp441
tp442
Rp443
ag0
(g5
g6
(I1
I0
tp444
tp445
Rp446
ag0
(g5
g6
(I1
I0
tp447
tp448
Rp449
ag0
(g5
g6
(I1
I0
tp450
tp451
Rp452
ag0
(g5
g6
(I1
I0
tp453
tp454
Rp455
ag0
(g5
g6
(I1
I0
tp456
tp457
Rp458
ag0
(g5
g6
(I1
I0
tp459
tp460
Rp461
ag0
(g5
g6
(I1
I0
tp462
tp463
Rp464
ag0
(g5
g6
(I1
I0
tp465
tp466
Rp467
ag0
(g5
g6
(I1
I0
tp468
tp469
Rp470
ag0
(g5
g6
(I1
I0
tp471
tp472
Rp473
ag0
(g5
g6
(I1
I0
tp474
tp475
Rp476
ag0
(g5
g6
(I1
I0
tp477
tp478
Rp479
ag0
(g5
g6
(I1
I0
tp480
tp481
Rp482
ag0
(g5
g6
(I1
I0
tp483
tp484
Rp485
ag0
(g5
g6
(I1
I0
tp486
tp487
Rp488
ag0
(g5
g6
(I1
I0
tp489
tp490
Rp491
ag0
(g5
g6
(I1
I0
tp492
tp493
Rp494
ag0
(g5
g6
(I1
I0
tp495
tp496
Rp497
ag0
(g5
g6
(I1
I0
tp498
tp499
Rp500
ag0
(g5
g6
(I1
I0
tp501
tp502
Rp503
ag0
(g5
g6
(I1
I0
tp504
tp505
Rp506
ag0
(g5
g6
(I1
I0
tp507
tp508
Rp509
ag0
(g5
g6
(I1
I0
tp510
tp511
Rp512
ag0
(g5
g6
(I1
I0
tp513
tp514
Rp515
ag0
(g5
g6
(I1
I0
tp516
tp517
Rp518
ag0
(g5
g6
(I1
I0
tp519
tp520
Rp521
ag0
(g5
g6
(I1
I0
tp522
tp523
Rp524
ag0
(g5
g6
(I1
I0
tp525
tp526
Rp527
ag0
(g5
g6
(I1
I0
tp528
tp529
Rp530
ag0
(g5
g6
(I1
I0
tp531
tp532
Rp533
ag0
(g5
g6
(I1
I0
tp534
tp535
Rp536
ag0
(g5
g6
(I1
I0
tp537
tp538
Rp539
ag0
(g5
g6
(I1
I0
tp540
tp541
Rp542
ag0
(g5
g6
(I1
I0
tp543
tp544
Rp545
ag0
(g5
g6
(I1
I0
tp546
tp547
Rp548
ag0
(g5
g6
(I1
I0
tp549
tp550
Rp551
ag0
(g5
g6
(I1
I0
tp552
tp553
Rp554
ag0
(g5
g6
(I1
I0
tp555
tp556
Rp557
ag0
(g5
g6
(I1
I0
tp558
tp559
Rp560
ag0
(g5
g6
(I1
I0
tp561
tp562
Rp563
ag0
(g5
g6
(I1
I0
tp564
tp565
Rp566
ag0
(g5
g6
(I1
I0
tp567
tp568
Rp569
ag0
(g5
g6
(I1
I0
tp570
tp571
Rp572
ag0
(g5
g6
(I1
I0
tp573
tp574
Rp575
ag0
(g5
g6
(I1
I0
tp576
tp577
Rp578
ag0
(g5
g6
(I1
I0
tp579
tp580
Rp581
ag0
(g5
g6
(I1
I0
tp582
tp583
Rp584
aa(lp585
g0
(g5
g6
(I1
I0
tp586
tp587
Rp588
ag0
(g5
g6
(I1
I0
tp589
tp590
Rp591
ag0
(g5
g6
(I1
I0
tp592
tp593
Rp594
ag0
(g5
g6
(I1
I0
tp595
tp596
Rp597
ag0
(g5
g6
(I1
I0
tp598
tp599
Rp600
ag0
(g5
g6
(I1
I0
tp601
tp602
Rp603
ag0
(g5
g6
(I1
I0
tp604
tp605
Rp606
ag0
(g5
g6
(I1
I0
tp607
tp608
Rp609
ag0
(g5
g6
(I1
I0
tp610
tp611
Rp612
ag0
(g5
g6
(I1
I0
tp613
tp614
Rp615
ag0
(g5
g6
(I1
I0
tp616
tp617
Rp618
ag0
(g5
g6
(I1
I0
tp619
tp620
Rp621
ag0
(g5
g6
(I1
I0
tp622
tp623
Rp624
ag0
(g5
g6
(I1
I0
tp625
tp626
Rp627
ag0
(g5
g6
(I1
I0
tp628
tp629
Rp630
ag0
(g5
g6
(I1
I0
tp631
tp632
Rp633
ag0
(g5
g6
(I1
I0
tp634
tp635
Rp636
ag0
(g5
g6
(I1
I0
tp637
tp638
Rp639
ag0
(g5
g6
(I1
I0
tp640
tp641
Rp642
ag0
(g5
g6
(I1
I0
tp643
tp644
Rp645
ag0
(g5
g6
(I1
I0
tp646
tp647
Rp648
ag0
(g5
g6
(I1
I0
tp649
tp650
Rp651
ag0
(g5
g6
(I1
I0
tp652
tp653
Rp654
ag0
(g5
g6
(I1
I0
tp655
tp656
Rp657
ag0
(g5
g6
(I1
I0
tp658
tp659
Rp660
ag0
(g5
g6
(I1
I0
tp661
tp662
Rp663
ag0
(g5
g6
(I1
I0
tp664
tp665
Rp666
ag0
(g5
g6
(I1
I0
tp667
tp668
Rp669
ag0
(g5
g6
(I1
I0
tp670
tp671
Rp672
ag0
(g5
g6
(I1
I0
tp673
tp674
Rp675
ag0
(g5
g6
(I1
I0
tp676
tp677
Rp678
ag0
(g5
g6
(I1
I0
tp679
tp680
Rp681
ag0
(g5
g6
(I1
I0
tp682
tp683
Rp684
ag0
(g5
g6
(I1
I0
tp685
tp686
Rp687
ag0
(g5
g6
(I1
I0
tp688
tp689
Rp690
ag0
(g5
g6
(I1
I0
tp691
tp692
Rp693
ag0
(g5
g6
(I1
I0
tp694
tp695
Rp696
ag0
(g5
g6
(I1
I0
tp697
tp698
Rp699
ag0
(g5
g6
(I1
I0
tp700
tp701
Rp702
ag0
(g5
g6
(I1
I0
tp703
tp704
Rp705
ag0
(g5
g6
(I1
I0
tp706
tp707
Rp708
ag0
(g5
g6
(I1
I0
tp709
tp710
Rp711
ag0
(g5
g6
(I1
I0
tp712
tp713
Rp714
ag0
(g5
g6
(I1
I0
tp715
tp716
Rp717
ag0
(g5
g6
(I1
I0
tp718
tp719
Rp720
ag0
(g5
g6
(I1
I0
tp721
tp722
Rp723
ag0
(g5
g6
(I1
I0
tp724
tp725
Rp726
ag0
(g5
g6
(I1
I0
tp727
tp728
Rp729
ag0
(g5
g6
(I1
I0
tp730
tp731
Rp732
ag0
(g5
g6
(I1
I0
tp733
tp734
Rp735
ag0
(g5
g6
(I1
I0
tp736
tp737
Rp738
ag0
(g5
g6
(I1
I0
tp739
tp740
Rp741
ag0
(g5
g6
(I1
I0
tp742
tp743
Rp744
ag0
(g5
g6
(I1
I0
tp745
tp746
Rp747
ag0
(g5
g6
(I1
I0
tp748
tp749
Rp750
ag0
(g5
g6
(I1
I0
tp751
tp752
Rp753
ag0
(g5
g6
(I1
I0
tp754
tp755
Rp756
ag0
(g5
g6
(I1
I0
tp757
tp758
Rp759
ag0
(g5
g6
(I1
I0
tp760
tp761
Rp762
ag0
(g5
g6
(I1
I0
tp763
tp764
Rp765
ag0
(g5
g6
(I1
I0
tp766
tp767
Rp768
ag0
(g5
g6
(I1
I0
tp769
tp770
Rp771
ag0
(g5
g6
(I1
I0
tp772
tp773
Rp774
ag0
(g5
g6
(I1
I0
tp775
tp776
Rp777
aa(lp778
g0
(g5
g6
(I1
I0
tp779
tp780
Rp781
ag0
(g5
g6
(I1
I0
tp782
tp783
Rp784
ag0
(g5
g6
(I1
I0
tp785
tp786
Rp787
ag0
(g5
g6
(I1
I0
tp788
tp789
Rp790
ag0
(g5
g6
(I1
I0
tp791
tp792
Rp793
ag0
(g5
g6
(I1
I0
tp794
tp795
Rp796
ag0
(g5
g6
(I1
I0
tp797
tp798
Rp799
ag0
(g5
g6
(I1
I0
tp800
tp801
Rp802
ag0
(g5
g6
(I1
I0
tp803
tp804
Rp805
ag0
(g5
g6
(I1
I0
tp806
tp807
Rp808
ag0
(g5
g6
(I1
I0
tp809
tp810
Rp811
ag0
(g5
g6
(I1
I0
tp812
tp813
Rp814
ag0
(g5
g6
(I1
I0
tp815
tp816
Rp817
ag0
(g5
g6
(I1
I0
tp818
tp819
Rp820
ag0
(g5
g6
(I1
I0
tp821
tp822
Rp823
ag0
(g5
g6
(I1
I0
tp824
tp825
Rp826
ag0
(g5
g6
(I1
I0
tp827
tp828
Rp829
ag0
(g5
g6
(I1
I0
tp830
tp831
Rp832
ag0
(g5
g6
(I1
I0
tp833
tp834
Rp835
ag0
(g5
g6
(I1
I0
tp836
tp837
Rp838
ag0
(g5
g6
(I1
I0
tp839
tp840
Rp841
ag0
(g5
g6
(I1
I0
tp842
tp843
Rp844
ag0
(g5
g6
(I1
I0
tp845
tp846
Rp847
ag0
(g5
g6
(I1
I0
tp848
tp849
Rp850
ag0
(g5
g6
(I1
I0
tp851
tp852
Rp853
ag0
(g5
g6
(I1
I0
tp854
tp855
Rp856
ag0
(g5
g6
(I1
I0
tp857
tp858
Rp859
ag0
(g5
g6
(I1
I0
tp860
tp861
Rp862
ag0
(g5
g6
(I1
I0
tp863
tp864
Rp865
ag0
(g5
g6
(I1
I0
tp866
tp867
Rp868
ag0
(g5
g6
(I1
I0
tp869
tp870
Rp871
ag0
(g5
g6
(I1
I0
tp872
tp873
Rp874
ag0
(g5
g6
(I1
I0
tp875
tp876
Rp877
ag0
(g5
g6
(I1
I0
tp878
tp879
Rp880
ag0
(g5
g6
(I1
I0
tp881
tp882
Rp883
ag0
(g5
g6
(I1
I0
tp884
tp885
Rp886
ag0
(g5
g6
(I1
I0
tp887
tp888
Rp889
ag0
(g5
g6
(I1
I0
tp890
tp891
Rp892
ag0
(g5
g6
(I1
I0
tp893
tp894
Rp895
ag0
(g5
g6
(I1
I0
tp896
tp897
Rp898
ag0
(g5
g6
(I1
I0
tp899
tp900
Rp901
ag0
(g5
g6
(I1
I0
tp902
tp903
Rp904
ag0
(g5
g6
(I1
I0
tp905
tp906
Rp907
ag0
(g5
g6
(I1
I0
tp908
tp909
Rp910
ag0
(g5
g6
(I1
I0
tp911
tp912
Rp913
ag0
(g5
g6
(I1
I0
tp914
tp915
Rp916
ag0
(g5
g6
(I1
I0
tp917
tp918
Rp919
ag0
(g5
g6
(I1
I0
tp920
tp921
Rp922
ag0
(g5
g6
(I1
I0
tp923
tp924
Rp925
ag0
(g5
g6
(I1
I0
tp926
tp927
Rp928
ag0
(g5
g6
(I1
I0
tp929
tp930
Rp931
ag0
(g5
g6
(I1
I0
tp932
tp933
Rp934
ag0
(g5
g6
(I1
I0
tp935
tp936
Rp937
ag0
(g5
g6
(I1
I0
tp938
tp939
Rp940
ag0
(g5
g6
(I1
I0
tp941
tp942
Rp943
ag0
(g5
g6
(I1
I0
tp944
tp945
Rp946
ag0
(g5
g6
(I1
I0
tp947
tp948
Rp949
ag0
(g5
g6
(I1
I0
tp950
tp951
Rp952
ag0
(g5
g6
(I1
I0
tp953
tp954
Rp955
ag0
(g5
g6
(I1
I0
tp956
tp957
Rp958
ag0
(g5
g6
(I1
I0
tp959
tp960
Rp961
ag0
(g5
g6
(I1
I0
tp962
tp963
Rp964
ag0
(g5
g6
(I1
I0
tp965
tp966
Rp967
ag0
(g5
g6
(I1
I0
tp968
tp969
Rp970
aa(lp971
g0
(g5
g6
(I1
I0
tp972
tp973
Rp974
ag0
(g5
g6
(I1
I0
tp975
tp976
Rp977
ag0
(g5
g6
(I1
I0
tp978
tp979
Rp980
ag0
(g5
g6
(I1
I0
tp981
tp982
Rp983
ag0
(g5
g6
(I1
I0
tp984
tp985
Rp986
ag0
(g5
g6
(I1
I0
tp987
tp988
Rp989
ag0
(g5
g6
(I1
I0
tp990
tp991
Rp992
ag0
(g5
g6
(I1
I0
tp993
tp994
Rp995
ag0
(g5
g6
(I1
I0
tp996
tp997
Rp998
ag0
(g5
g6
(I1
I0
tp999
tp1000
Rp1001
ag0
(g5
g6
(I1
I0
tp1002
tp1003
Rp1004
ag0
(g5
g6
(I1
I0
tp1005
tp1006
Rp1007
ag0
(g5
g6
(I1
I0
tp1008
tp1009
Rp1010
ag0
(g5
g6
(I1
I0
tp1011
tp1012
Rp1013
ag0
(g5
g6
(I1
I0
tp1014
tp1015
Rp1016
ag0
(g5
g6
(I1
I0
tp1017
tp1018
Rp1019
ag0
(g5
g6
(I1
I0
tp1020
tp1021
Rp1022
ag0
(g5
g6
(I1
I0
tp1023
tp1024
Rp1025
ag0
(g5
g6
(I1
I0
tp1026
tp1027
Rp1028
ag0
(g5
g6
(I1
I0
tp1029
tp1030
Rp1031
ag0
(g5
g6
(I1
I0
tp1032
tp1033
Rp1034
ag0
(g5
g6
(I1
I0
tp1035
tp1036
Rp1037
ag0
(g5
g6
(I1
I0
tp1038
tp1039
Rp1040
ag0
(g5
g6
(I1
I0
tp1041
tp1042
Rp1043
ag0
(g5
g6
(I1
I0
tp1044
tp1045
Rp1046
ag0
(g5
g6
(I1
I0
tp1047
tp1048
Rp1049
ag0
(g5
g6
(I1
I0
tp1050
tp1051
Rp1052
ag0
(g5
g6
(I1
I0
tp1053
tp1054
Rp1055
ag0
(g5
g6
(I1
I0
tp1056
tp1057
Rp1058
ag0
(g5
g6
(I1
I0
tp1059
tp1060
Rp1061
ag0
(g5
g6
(I1
I0
tp1062
tp1063
Rp1064
ag0
(g5
g6
(I1
I0
tp1065
tp1066
Rp1067
ag0
(g5
g6
(I1
I0
tp1068
tp1069
Rp1070
ag0
(g5
g6
(I1
I0
tp1071
tp1072
Rp1073
ag0
(g5
g6
(I1
I0
tp1074
tp1075
Rp1076
ag0
(g5
g6
(I1
I0
tp1077
tp1078
Rp1079
ag0
(g5
g6
(I1
I0
tp1080
tp1081
Rp1082
ag0
(g5
g6
(I1
I0
tp1083
tp1084
Rp1085
ag0
(g5
g6
(I1
I0
tp1086
tp1087
Rp1088
ag0
(g5
g6
(I1
I0
tp1089
tp1090
Rp1091
ag0
(g5
g6
(I1
I0
tp1092
tp1093
Rp1094
ag0
(g5
g6
(I1
I0
tp1095
tp1096
Rp1097
ag0
(g5
g6
(I1
I0
tp1098
tp1099
Rp1100
ag0
(g5
g6
(I1
I0
tp1101
tp1102
Rp1103
ag0
(g5
g6
(I1
I0
tp1104
tp1105
Rp1106
ag0
(g5
g6
(I1
I0
tp1107
tp1108
Rp1109
ag0
(g5
g6
(I1
I0
tp1110
tp1111
Rp1112
ag0
(g5
g6
(I1
I0
tp1113
tp1114
Rp1115
ag0
(g5
g6
(I1
I0
tp1116
tp1117
Rp1118
ag0
(g5
g6
(I1
I0
tp1119
tp1120
Rp1121
ag0
(g5
g6
(I1
I0
tp1122
tp1123
Rp1124
ag0
(g5
g6
(I1
I0
tp1125
tp1126
Rp1127
ag0
(g5
g6
(I1
I0
tp1128
tp1129
Rp1130
ag0
(g5
g6
(I1
I0
tp1131
tp1132
Rp1133
ag0
(g5
g6
(I1
I0
tp1134
tp1135
Rp1136
ag0
(g5
g6
(I1
I0
tp1137
tp1138
Rp1139
ag0
(g5
g6
(I1
I0
tp1140
tp1141
Rp1142
ag0
(g5
g6
(I1
I0
tp1143
tp1144
Rp1145
ag0
(g5
g6
(I1
I0
tp1146
tp1147
Rp1148
ag0
(g5
g6
(I1
I0
tp1149
tp1150
Rp1151
ag0
(g5
g6
(I1
I0
tp1152
tp1153
Rp1154
ag0
(g5
g6
(I1
I0
tp1155
tp1156
Rp1157
ag0
(g5
g6
(I1
I0
tp1158
tp1159
Rp1160
ag0
(g5
g6
(I1
I0
tp1161
tp1162
Rp1163
aa(lp1164
g0
(g5
g6
(I1
I0
tp1165
tp1166
Rp1167
ag0
(g5
g6
(I1
I0
tp1168
tp1169
Rp1170
ag0
(g5
g6
(I1
I0
tp1171
tp1172
Rp1173
ag0
(g5
g6
(I1
I0
tp1174
tp1175
Rp1176
ag0
(g5
g6
(I1
I0
tp1177
tp1178
Rp1179
ag0
(g5
g6
(I1
I0
tp1180
tp1181
Rp1182
ag0
(g5
g6
(I1
I0
tp1183
tp1184
Rp1185
ag0
(g5
g6
(I1
I0
tp1186
tp1187
Rp1188
ag0
(g5
g6
(I1
I0
tp1189
tp1190
Rp1191
ag0
(g5
g6
(I1
I0
tp1192
tp1193
Rp1194
ag0
(g5
g6
(I1
I0
tp1195
tp1196
Rp1197
ag0
(g5
g6
(I1
I0
tp1198
tp1199
Rp1200
ag0
(g5
g6
(I1
I0
tp1201
tp1202
Rp1203
ag0
(g5
g6
(I1
I0
tp1204
tp1205
Rp1206
ag0
(g5
g6
(I1
I0
tp1207
tp1208
Rp1209
ag0
(g5
g6
(I1
I0
tp1210
tp1211
Rp1212
ag0
(g5
g6
(I1
I0
tp1213
tp1214
Rp1215
ag0
(g5
g6
(I1
I0
tp1216
tp1217
Rp1218
ag0
(g5
g6
(I1
I0
tp1219
tp1220
Rp1221
ag0
(g5
g6
(I1
I0
tp1222
tp1223
Rp1224
ag0
(g5
g6
(I1
I0
tp1225
tp1226
Rp1227
ag0
(g5
g6
(I1
I0
tp1228
tp1229
Rp1230
ag0
(g5
g6
(I1
I0
tp1231
tp1232
Rp1233
ag0
(g5
g6
(I1
I0
tp1234
tp1235
Rp1236
ag0
(g5
g6
(I1
I0
tp1237
tp1238
Rp1239
ag0
(g5
g6
(I1
I0
tp1240
tp1241
Rp1242
ag0
(g5
g6
(I1
I0
tp1243
tp1244
Rp1245
ag0
(g5
g6
(I1
I0
tp1246
tp1247
Rp1248
ag0
(g5
g6
(I1
I0
tp1249
tp1250
Rp1251
ag0
(g5
g6
(I1
I0
tp1252
tp1253
Rp1254
ag0
(g5
g6
(I1
I0
tp1255
tp1256
Rp1257
ag0
(g5
g6
(I1
I0
tp1258
tp1259
Rp1260
ag0
(g5
g6
(I1
I0
tp1261
tp1262
Rp1263
ag0
(g5
g6
(I1
I0
tp1264
tp1265
Rp1266
ag0
(g5
g6
(I1
I0
tp1267
tp1268
Rp1269
ag0
(g5
g6
(I1
I0
tp1270
tp1271
Rp1272
ag0
(g5
g6
(I1
I0
tp1273
tp1274
Rp1275
ag0
(g5
g6
(I1
I0
tp1276
tp1277
Rp1278
ag0
(g5
g6
(I1
I0
tp1279
tp1280
Rp1281
ag0
(g5
g6
(I1
I0
tp1282
tp1283
Rp1284
ag0
(g5
g6
(I1
I0
tp1285
tp1286
Rp1287
ag0
(g5
g6
(I1
I0
tp1288
tp1289
Rp1290
ag0
(g5
g6
(I1
I0
tp1291
tp1292
Rp1293
ag0
(g5
g6
(I1
I0
tp1294
tp1295
Rp1296
ag0
(g5
g6
(I1
I0
tp1297
tp1298
Rp1299
ag0
(g5
g6
(I1
I0
tp1300
tp1301
Rp1302
ag0
(g5
g6
(I1
I0
tp1303
tp1304
Rp1305
ag0
(g5
g6
(I1
I0
tp1306
tp1307
Rp1308
ag0
(g5
g6
(I1
I0
tp1309
tp1310
Rp1311
ag0
(g5
g6
(I1
I0
tp1312
tp1313
Rp1314
ag0
(g5
g6
(I1
I0
tp1315
tp1316
Rp1317
ag0
(g5
g6
(I1
I0
tp1318
tp1319
Rp1320
ag0
(g5
g6
(I1
I0
tp1321
tp1322
Rp1323
ag0
(g5
g6
(I1
I0
tp1324
tp1325
Rp1326
ag0
(g5
g6
(I1
I0
tp1327
tp1328
Rp1329
ag0
(g5
g6
(I1
I0
tp1330
tp1331
Rp1332
ag0
(g5
g6
(I1
I0
tp1333
tp1334
Rp1335
ag0
(g5
g6
(I1
I0
tp1336
tp1337
Rp1338
ag0
(g5
g6
(I1
I0
tp1339
tp1340
Rp1341
ag0
(g5
g6
(I1
I0
tp1342
tp1343
Rp1344
ag0
(g5
g6
(I1
I0
tp1345
tp1346
Rp1347
ag0
(g5
g6
(I1
I0
tp1348
tp1349
Rp1350
ag0
(g5
g6
(I1
I0
tp1351
tp1352
Rp1353
ag0
(g5
g6
(I1
I0
tp1354
tp1355
Rp1356
aa(lp1357
g0
(g5
g6
(I1
I0
tp1358
tp1359
Rp1360
ag0
(g5
g6
(I1
I0
tp1361
tp1362
Rp1363
ag0
(g5
g6
(I1
I0
tp1364
tp1365
Rp1366
ag0
(g5
g6
(I1
I0
tp1367
tp1368
Rp1369
ag0
(g5
g6
(I1
I0
tp1370
tp1371
Rp1372
ag0
(g5
g6
(I1
I0
tp1373
tp1374
Rp1375
ag0
(g5
g6
(I1
I0
tp1376
tp1377
Rp1378
ag0
(g5
g6
(I1
I0
tp1379
tp1380
Rp1381
ag0
(g5
g6
(I1
I-22
tp1382
tp1383
Rp1384
ag0
(g5
g6
(I1
I-22
tp1385
tp1386
Rp1387
ag0
(g5
g6
(I1
I-22
tp1388
tp1389
Rp1390
ag0
(g5
g6
(I1
I-22
tp1391
tp1392
Rp1393
ag0
(g5
g6
(I1
I-22
tp1394
tp1395
Rp1396
ag0
(g5
g6
(I1
I0
tp1397
tp1398
Rp1399
ag0
(g5
g6
(I1
I0
tp1400
tp1401
Rp1402
ag0
(g5
g6
(I1
I0
tp1403
tp1404
Rp1405
ag0
(g5
g6
(I1
I0
tp1406
tp1407
Rp1408
ag0
(g5
g6
(I1
I0
tp1409
tp1410
Rp1411
ag0
(g5
g6
(I1
I0
tp1412
tp1413
Rp1414
ag0
(g5
g6
(I1
I0
tp1415
tp1416
Rp1417
ag0
(g5
g6
(I1
I0
tp1418
tp1419
Rp1420
ag0
(g5
g6
(I1
I0
tp1421
tp1422
Rp1423
ag0
(g5
g6
(I1
I0
tp1424
tp1425
Rp1426
ag0
(g5
g6
(I1
I0
tp1427
tp1428
Rp1429
ag0
(g5
g6
(I1
I0
tp1430
tp1431
Rp1432
ag0
(g5
g6
(I1
I0
tp1433
tp1434
Rp1435
ag0
(g5
g6
(I1
I0
tp1436
tp1437
Rp1438
ag0
(g5
g6
(I1
I0
tp1439
tp1440
Rp1441
ag0
(g5
g6
(I1
I0
tp1442
tp1443
Rp1444
ag0
(g5
g6
(I1
I0
tp1445
tp1446
Rp1447
ag0
(g5
g6
(I1
I0
tp1448
tp1449
Rp1450
ag0
(g5
g6
(I1
I0
tp1451
tp1452
Rp1453
ag0
(g5
g6
(I1
I0
tp1454
tp1455
Rp1456
ag0
(g5
g6
(I1
I0
tp1457
tp1458
Rp1459
ag0
(g5
g6
(I1
I0
tp1460
tp1461
Rp1462
ag0
(g5
g6
(I1
I0
tp1463
tp1464
Rp1465
ag0
(g5
g6
(I1
I0
tp1466
tp1467
Rp1468
ag0
(g5
g6
(I1
I0
tp1469
tp1470
Rp1471
ag0
(g5
g6
(I1
I0
tp1472
tp1473
Rp1474
ag0
(g5
g6
(I1
I0
tp1475
tp1476
Rp1477
ag0
(g5
g6
(I1
I0
tp1478
tp1479
Rp1480
ag0
(g5
g6
(I1
I0
tp1481
tp1482
Rp1483
ag0
(g5
g6
(I1
I0
tp1484
tp1485
Rp1486
ag0
(g5
g6
(I1
I0
tp1487
tp1488
Rp1489
ag0
(g5
g6
(I1
I0
tp1490
tp1491
Rp1492
ag0
(g5
g6
(I1
I0
tp1493
tp1494
Rp1495
ag0
(g5
g6
(I1
I0
tp1496
tp1497
Rp1498
ag0
(g5
g6
(I1
I0
tp1499
tp1500
Rp1501
ag0
(g5
g6
(I1
I0
tp1502
tp1503
Rp1504
ag0
(g5
g6
(I1
I0
tp1505
tp1506
Rp1507
ag0
(g5
g6
(I1
I0
tp1508
tp1509
Rp1510
ag0
(g5
g6
(I1
I-22
tp1511
tp1512
Rp1513
ag0
(g5
g6
(I1
I-22
tp1514
tp1515
Rp1516
ag0
(g5
g6
(I1
I-22
tp1517
tp1518
Rp1519
ag0
(g5
g6
(I1
I-22
tp1520
tp1521
Rp1522
ag0
(g5
g6
(I1
I-22
tp1523
tp1524
Rp1525
ag0
(g5
g6
(I1
I0
tp1526
tp1527
Rp1528
ag0
(g5
g6
(I1
I0
tp1529
tp1530
Rp1531
ag0
(g5
g6
(I1
I0
tp1532
tp1533
Rp1534
ag0
(g5
g6
(I1
I0
tp1535
tp1536
Rp1537
ag0
(g5
g6
(I1
I0
tp1538
tp1539
Rp1540
ag0
(g5
g6
(I1
I0
tp1541
tp1542
Rp1543
ag0
(g5
g6
(I1
I0
tp1544
tp1545
Rp1546
ag0
(g5
g6
(I1
I0
tp1547
tp1548
Rp1549
aa(lp1550
g0
(g5
g6
(I1
I0
tp1551
tp1552
Rp1553
ag0
(g5
g6
(I1
I0
tp1554
tp1555
Rp1556
ag0
(g5
g6
(I1
I0
tp1557
tp1558
Rp1559
ag0
(g5
g6
(I1
I0
tp1560
tp1561
Rp1562
ag0
(g5
g6
(I1
I0
tp1563
tp1564
Rp1565
ag0
(g5
g6
(I1
I0
tp1566
tp1567
Rp1568
ag0
(g5
g6
(I1
I0
tp1569
tp1570
Rp1571
ag0
(g5
g6
(I1
I0
tp1572
tp1573
Rp1574
ag0
(g5
g6
(I1
I0
tp1575
tp1576
Rp1577
ag0
(g5
g6
(I1
I0
tp1578
tp1579
Rp1580
ag0
(g5
g6
(I1
I0
tp1581
tp1582
Rp1583
ag0
(g5
g6
(I1
I0
tp1584
tp1585
Rp1586
ag0
(g5
g6
(I1
I0
tp1587
tp1588
Rp1589
ag0
(g5
g6
(I1
I0
tp1590
tp1591
Rp1592
ag0
(g5
g6
(I1
I0
tp1593
tp1594
Rp1595
ag0
(g5
g6
(I1
I0
tp1596
tp1597
Rp1598
ag0
(g5
g6
(I1
I0
tp1599
tp1600
Rp1601
ag0
(g5
g6
(I1
I0
tp1602
tp1603
Rp1604
ag0
(g5
g6
(I1
I0
tp1605
tp1606
Rp1607
ag0
(g5
g6
(I1
I0
tp1608
tp1609
Rp1610
ag0
(g5
g6
(I1
I0
tp1611
tp1612
Rp1613
ag0
(g5
g6
(I1
I0
tp1614
tp1615
Rp1616
ag0
(g5
g6
(I1
I0
tp1617
tp1618
Rp1619
ag0
(g5
g6
(I1
I0
tp1620
tp1621
Rp1622
ag0
(g5
g6
(I1
I0
tp1623
tp1624
Rp1625
ag0
(g5
g6
(I1
I0
tp1626
tp1627
Rp1628
ag0
(g5
g6
(I1
I0
tp1629
tp1630
Rp1631
ag0
(g5
g6
(I1
I0
tp1632
tp1633
Rp1634
ag0
(g5
g6
(I1
I0
tp1635
tp1636
Rp1637
ag0
(g5
g6
(I1
I0
tp1638
tp1639
Rp1640
ag0
(g5
g6
(I1
I0
tp1641
tp1642
Rp1643
ag0
(g5
g6
(I1
I0
tp1644
tp1645
Rp1646
ag0
(g5
g6
(I1
I0
tp1647
tp1648
Rp1649
ag0
(g5
g6
(I1
I0
tp1650
tp1651
Rp1652
ag0
(g5
g6
(I1
I0
tp1653
tp1654
Rp1655
ag0
(g5
g6
(I1
I0
tp1656
tp1657
Rp1658
ag0
(g5
g6
(I1
I0
tp1659
tp1660
Rp1661
ag0
(g5
g6
(I1
I0
tp1662
tp1663
Rp1664
ag0
(g5
g6
(I1
I0
tp1665
tp1666
Rp1667
ag0
(g5
g6
(I1
I0
tp1668
tp1669
Rp1670
ag0
(g5
g6
(I1
I0
tp1671
tp1672
Rp1673
ag0
(g5
g6
(I1
I0
tp1674
tp1675
Rp1676
ag0
(g5
g6
(I1
I0
tp1677
tp1678
Rp1679
ag0
(g5
g6
(I1
I0
tp1680
tp1681
Rp1682
ag0
(g5
g6
(I1
I0
tp1683
tp1684
Rp1685
ag0
(g5
g6
(I1
I0
tp1686
tp1687
Rp1688
ag0
(g5
g6
(I1
I0
tp1689
tp1690
Rp1691
ag0
(g5
g6
(I1
I0
tp1692
tp1693
Rp1694
ag0
(g5
g6
(I1
I0
tp1695
tp1696
Rp1697
ag0
(g5
g6
(I1
I0
tp1698
tp1699
Rp1700
ag0
(g5
g6
(I1
I0
tp1701
tp1702
Rp1703
ag0
(g5
g6
(I1
I0
tp1704
tp1705
Rp1706
ag0
(g5
g6
(I1
I0
tp1707
tp1708
Rp1709
ag0
(g5
g6
(I1
I0
tp1710
tp1711
Rp1712
ag0
(g5
g6
(I1
I0
tp1713
tp1714
Rp1715
ag0
(g5
g6
(I1
I0
tp1716
tp1717
Rp1718
ag0
(g5
g6
(I1
I0
tp1719
tp1720
Rp1721
ag0
(g5
g6
(I1
I0
tp1722
tp1723
Rp1724
ag0
(g5
g6
(I1
I0
tp1725
tp1726
Rp1727
ag0
(g5
g6
(I1
I0
tp1728
tp1729
Rp1730
ag0
(g5
g6
(I1
I0
tp1731
tp1732
Rp1733
ag0
(g5
g6
(I1
I0
tp1734
tp1735
Rp1736
ag0
(g5
g6
(I1
I0
tp1737
tp1738
Rp1739
ag0
(g5
g6
(I1
I0
tp1740
tp1741
Rp1742
aa(lp1743
g0
(g5
g6
(I1
I0
tp1744
tp1745
Rp1746
ag0
(g5
g6
(I1
I0
tp1747
tp1748
Rp1749
ag0
(g5
g6
(I1
I0
tp1750
tp1751
Rp1752
ag0
(g5
g6
(I1
I0
tp1753
tp1754
Rp1755
ag0
(g5
g6
(I1
I0
tp1756
tp1757
Rp1758
ag0
(g5
g6
(I1
I0
tp1759
tp1760
Rp1761
ag0
(g5
g6
(I1
I0
tp1762
tp1763
Rp1764
ag0
(g5
g6
(I1
I0
tp1765
tp1766
Rp1767
ag0
(g5
g6
(I1
I0
tp1768
tp1769
Rp1770
ag0
(g5
g6
(I1
I0
tp1771
tp1772
Rp1773
ag0
(g5
g6
(I1
I0
tp1774
tp1775
Rp1776
ag0
(g5
g6
(I1
I0
tp1777
tp1778
Rp1779
ag0
(g5
g6
(I1
I0
tp1780
tp1781
Rp1782
ag0
(g5
g6
(I1
I0
tp1783
tp1784
Rp1785
ag0
(g5
g6
(I1
I0
tp1786
tp1787
Rp1788
ag0
(g5
g6
(I1
I0
tp1789
tp1790
Rp1791
ag0
(g5
g6
(I1
I0
tp1792
tp1793
Rp1794
ag0
(g5
g6
(I1
I0
tp1795
tp1796
Rp1797
ag0
(g5
g6
(I1
I0
tp1798
tp1799
Rp1800
ag0
(g5
g6
(I1
I0
tp1801
tp1802
Rp1803
ag0
(g5
g6
(I1
I0
tp1804
tp1805
Rp1806
ag0
(g5
g6
(I1
I0
tp1807
tp1808
Rp1809
ag0
(g5
g6
(I1
I0
tp1810
tp1811
Rp1812
ag0
(g5
g6
(I1
I0
tp1813
tp1814
Rp1815
ag0
(g5
g6
(I1
I0
tp1816
tp1817
Rp1818
ag0
(g5
g6
(I1
I0
tp1819
tp1820
Rp1821
ag0
(g5
g6
(I1
I0
tp1822
tp1823
Rp1824
ag0
(g5
g6
(I1
I0
tp1825
tp1826
Rp1827
ag0
(g5
g6
(I1
I0
tp1828
tp1829
Rp1830
ag0
(g5
g6
(I1
I0
tp1831
tp1832
Rp1833
ag0
(g5
g6
(I1
I0
tp1834
tp1835
Rp1836
ag0
(g5
g6
(I1
I0
tp1837
tp1838
Rp1839
ag0
(g5
g6
(I1
I0
tp1840
tp1841
Rp1842
ag0
(g5
g6
(I1
I0
tp1843
tp1844
Rp1845
ag0
(g5
g6
(I1
I0
tp1846
tp1847
Rp1848
ag0
(g5
g6
(I1
I0
tp1849
tp1850
Rp1851
ag0
(g5
g6
(I1
I0
tp1852
tp1853
Rp1854
ag0
(g5
g6
(I1
I0
tp1855
tp1856
Rp1857
ag0
(g5
g6
(I1
I0
tp1858
tp1859
Rp1860
ag0
(g5
g6
(I1
I0
tp1861
tp1862
Rp1863
ag0
(g5
g6
(I1
I0
tp1864
tp1865
Rp1866
ag0
(g5
g6
(I1
I0
tp1867
tp1868
Rp1869
ag0
(g5
g6
(I1
I0
tp1870
tp1871
Rp1872
ag0
(g5
g6
(I1
I0
tp1873
tp1874
Rp1875
ag0
(g5
g6
(I1
I0
tp1876
tp1877
Rp1878
ag0
(g5
g6
(I1
I0
tp1879
tp1880
Rp1881
ag0
(g5
g6
(I1
I0
tp1882
tp1883
Rp1884
ag0
(g5
g6
(I1
I0
tp1885
tp1886
Rp1887
ag0
(g5
g6
(I1
I0
tp1888
tp1889
Rp1890
ag0
(g5
g6
(I1
I0
tp1891
tp1892
Rp1893
ag0
(g5
g6
(I1
I0
tp1894
tp1895
Rp1896
ag0
(g5
g6
(I1
I0
tp1897
tp1898
Rp1899
ag0
(g5
g6
(I1
I0
tp1900
tp1901
Rp1902
ag0
(g5
g6
(I1
I0
tp1903
tp1904
Rp1905
ag0
(g5
g6
(I1
I0
tp1906
tp1907
Rp1908
ag0
(g5
g6
(I1
I0
tp1909
tp1910
Rp1911
ag0
(g5
g6
(I1
I0
tp1912
tp1913
Rp1914
ag0
(g5
g6
(I1
I0
tp1915
tp1916
Rp1917
ag0
(g5
g6
(I1
I0
tp1918
tp1919
Rp1920
ag0
(g5
g6
(I1
I0
tp1921
tp1922
Rp1923
ag0
(g5
g6
(I1
I0
tp1924
tp1925
Rp1926
ag0
(g5
g6
(I1
I0
tp1927
tp1928
Rp1929
ag0
(g5
g6
(I1
I0
tp1930
tp1931
Rp1932
ag0
(g5
g6
(I1
I0
tp1933
tp1934
Rp1935
aa(lp1936
g0
(g5
g6
(I1
I0
tp1937
tp1938
Rp1939
ag0
(g5
g6
(I1
I0
tp1940
tp1941
Rp1942
ag0
(g5
g6
(I1
I0
tp1943
tp1944
Rp1945
ag0
(g5
g6
(I1
I0
tp1946
tp1947
Rp1948
ag0
(g5
g6
(I1
I0
tp1949
tp1950
Rp1951
ag0
(g5
g6
(I1
I0
tp1952
tp1953
Rp1954
ag0
(g5
g6
(I1
I0
tp1955
tp1956
Rp1957
ag0
(g5
g6
(I1
I0
tp1958
tp1959
Rp1960
ag0
(g5
g6
(I1
I0
tp1961
tp1962
Rp1963
ag0
(g5
g6
(I1
I0
tp1964
tp1965
Rp1966
ag0
(g5
g6
(I1
I0
tp1967
tp1968
Rp1969
ag0
(g5
g6
(I1
I0
tp1970
tp1971
Rp1972
ag0
(g5
g6
(I1
I0
tp1973
tp1974
Rp1975
ag0
(g5
g6
(I1
I0
tp1976
tp1977
Rp1978
ag0
(g5
g6
(I1
I0
tp1979
tp1980
Rp1981
ag0
(g5
g6
(I1
I0
tp1982
tp1983
Rp1984
ag0
(g5
g6
(I1
I0
tp1985
tp1986
Rp1987
ag0
(g5
g6
(I1
I0
tp1988
tp1989
Rp1990
ag0
(g5
g6
(I1
I0
tp1991
tp1992
Rp1993
ag0
(g5
g6
(I1
I0
tp1994
tp1995
Rp1996
ag0
(g5
g6
(I1
I0
tp1997
tp1998
Rp1999
ag0
(g5
g6
(I1
I-1
tp2000
tp2001
Rp2002
ag0
(g5
g6
(I1
I0
tp2003
tp2004
Rp2005
ag0
(g5
g6
(I1
I-1
tp2006
tp2007
Rp2008
ag0
(g5
g6
(I1
I0
tp2009
tp2010
Rp2011
ag0
(g5
g6
(I1
I-1
tp2012
tp2013
Rp2014
ag0
(g5
g6
(I1
I0
tp2015
tp2016
Rp2017
ag0
(g5
g6
(I1
I-1
tp2018
tp2019
Rp2020
ag0
(g5
g6
(I1
I-1
tp2021
tp2022
Rp2023
ag0
(g5
g6
(I1
I0
tp2024
tp2025
Rp2026
ag0
(g5
g6
(I1
I0
tp2027
tp2028
Rp2029
ag0
(g5
g6
(I1
I-1
tp2030
tp2031
Rp2032
ag0
(g5
g6
(I1
I-1
tp2033
tp2034
Rp2035
ag0
(g5
g6
(I1
I-1
tp2036
tp2037
Rp2038
ag0
(g5
g6
(I1
I0
tp2039
tp2040
Rp2041
ag0
(g5
g6
(I1
I-1
tp2042
tp2043
Rp2044
ag0
(g5
g6
(I1
I-1
tp2045
tp2046
Rp2047
ag0
(g5
g6
(I1
I-1
tp2048
tp2049
Rp2050
ag0
(g5
g6
(I1
I-1
tp2051
tp2052
Rp2053
ag0
(g5
g6
(I1
I0
tp2054
tp2055
Rp2056
ag0
(g5
g6
(I1
I-1
tp2057
tp2058
Rp2059
ag0
(g5
g6
(I1
I0
tp2060
tp2061
Rp2062
ag0
(g5
g6
(I1
I-1
tp2063
tp2064
Rp2065
ag0
(g5
g6
(I1
I0
tp2066
tp2067
Rp2068
ag0
(g5
g6
(I1
I0
tp2069
tp2070
Rp2071
ag0
(g5
g6
(I1
I0
tp2072
tp2073
Rp2074
ag0
(g5
g6
(I1
I0
tp2075
tp2076
Rp2077
ag0
(g5
g6
(I1
I0
tp2078
tp2079
Rp2080
ag0
(g5
g6
(I1
I0
tp2081
tp2082
Rp2083
ag0
(g5
g6
(I1
I0
tp2084
tp2085
Rp2086
ag0
(g5
g6
(I1
I0
tp2087
tp2088
Rp2089
ag0
(g5
g6
(I1
I0
tp2090
tp2091
Rp2092
ag0
(g5
g6
(I1
I0
tp2093
tp2094
Rp2095
ag0
(g5
g6
(I1
I0
tp2096
tp2097
Rp2098
ag0
(g5
g6
(I1
I0
tp2099
tp2100
Rp2101
ag0
(g5
g6
(I1
I0
tp2102
tp2103
Rp2104
ag0
(g5
g6
(I1
I0
tp2105
tp2106
Rp2107
ag0
(g5
g6
(I1
I0
tp2108
tp2109
Rp2110
ag0
(g5
g6
(I1
I0
tp2111
tp2112
Rp2113
ag0
(g5
g6
(I1
I0
tp2114
tp2115
Rp2116
ag0
(g5
g6
(I1
I0
tp2117
tp2118
Rp2119
ag0
(g5
g6
(I1
I0
tp2120
tp2121
Rp2122
ag0
(g5
g6
(I1
I0
tp2123
tp2124
Rp2125
ag0
(g5
g6
(I1
I0
tp2126
tp2127
Rp2128
aa(lp2129
g0
(g5
g6
(I1
I0
tp2130
tp2131
Rp2132
ag0
(g5
g6
(I1
I0
tp2133
tp2134
Rp2135
ag0
(g5
g6
(I1
I0
tp2136
tp2137
Rp2138
ag0
(g5
g6
(I1
I0
tp2139
tp2140
Rp2141
ag0
(g5
g6
(I1
I0
tp2142
tp2143
Rp2144
ag0
(g5
g6
(I1
I0
tp2145
tp2146
Rp2147
ag0
(g5
g6
(I1
I0
tp2148
tp2149
Rp2150
ag0
(g5
g6
(I1
I0
tp2151
tp2152
Rp2153
ag0
(g5
g6
(I1
I0
tp2154
tp2155
Rp2156
ag0
(g5
g6
(I1
I0
tp2157
tp2158
Rp2159
ag0
(g5
g6
(I1
I0
tp2160
tp2161
Rp2162
ag0
(g5
g6
(I1
I0
tp2163
tp2164
Rp2165
ag0
(g5
g6
(I1
I0
tp2166
tp2167
Rp2168
ag0
(g5
g6
(I1
I0
tp2169
tp2170
Rp2171
ag0
(g5
g6
(I1
I0
tp2172
tp2173
Rp2174
ag0
(g5
g6
(I1
I0
tp2175
tp2176
Rp2177
ag0
(g5
g6
(I1
I0
tp2178
tp2179
Rp2180
ag0
(g5
g6
(I1
I0
tp2181
tp2182
Rp2183
ag0
(g5
g6
(I1
I0
tp2184
tp2185
Rp2186
ag0
(g5
g6
(I1
I0
tp2187
tp2188
Rp2189
ag0
(g5
g6
(I1
I0
tp2190
tp2191
Rp2192
ag0
(g5
g6
(I1
I0
tp2193
tp2194
Rp2195
ag0
(g5
g6
(I1
I-1
tp2196
tp2197
Rp2198
ag0
(g5
g6
(I1
I-1
tp2199
tp2200
Rp2201
ag0
(g5
g6
(I1
I-1
tp2202
tp2203
Rp2204
ag0
(g5
g6
(I1
I-1
tp2205
tp2206
Rp2207
ag0
(g5
g6
(I1
I-1
tp2208
tp2209
Rp2210
ag0
(g5
g6
(I1
I-1
tp2211
tp2212
Rp2213
ag0
(g5
g6
(I1
I-1
tp2214
tp2215
Rp2216
ag0
(g5
g6
(I1
I0
tp2217
tp2218
Rp2219
ag0
(g5
g6
(I1
I0
tp2220
tp2221
Rp2222
ag0
(g5
g6
(I1
I0
tp2223
tp2224
Rp2225
ag0
(g5
g6
(I1
I-1
tp2226
tp2227
Rp2228
ag0
(g5
g6
(I1
I0
tp2229
tp2230
Rp2231
ag0
(g5
g6
(I1
I-1
tp2232
tp2233
Rp2234
ag0
(g5
g6
(I1
I0
tp2235
tp2236
Rp2237
ag0
(g5
g6
(I1
I-1
tp2238
tp2239
Rp2240
ag0
(g5
g6
(I1
I0
tp2241
tp2242
Rp2243
ag0
(g5
g6
(I1
I0
tp2244
tp2245
Rp2246
ag0
(g5
g6
(I1
I-1
tp2247
tp2248
Rp2249
ag0
(g5
g6
(I1
I-1
tp2250
tp2251
Rp2252
ag0
(g5
g6
(I1
I-1
tp2253
tp2254
Rp2255
ag0
(g5
g6
(I1
I-1
tp2256
tp2257
Rp2258
ag0
(g5
g6
(I1
I-1
tp2259
tp2260
Rp2261
ag0
(g5
g6
(I1
I0
tp2262
tp2263
Rp2264
ag0
(g5
g6
(I1
I0
tp2265
tp2266
Rp2267
ag0
(g5
g6
(I1
I0
tp2268
tp2269
Rp2270
ag0
(g5
g6
(I1
I0
tp2271
tp2272
Rp2273
ag0
(g5
g6
(I1
I0
tp2274
tp2275
Rp2276
ag0
(g5
g6
(I1
I0
tp2277
tp2278
Rp2279
ag0
(g5
g6
(I1
I0
tp2280
tp2281
Rp2282
ag0
(g5
g6
(I1
I0
tp2283
tp2284
Rp2285
ag0
(g5
g6
(I1
I0
tp2286
tp2287
Rp2288
ag0
(g5
g6
(I1
I0
tp2289
tp2290
Rp2291
ag0
(g5
g6
(I1
I0
tp2292
tp2293
Rp2294
ag0
(g5
g6
(I1
I0
tp2295
tp2296
Rp2297
ag0
(g5
g6
(I1
I0
tp2298
tp2299
Rp2300
ag0
(g5
g6
(I1
I0
tp2301
tp2302
Rp2303
ag0
(g5
g6
(I1
I0
tp2304
tp2305
Rp2306
ag0
(g5
g6
(I1
I0
tp2307
tp2308
Rp2309
ag0
(g5
g6
(I1
I0
tp2310
tp2311
Rp2312
ag0
(g5
g6
(I1
I0
tp2313
tp2314
Rp2315
ag0
(g5
g6
(I1
I0
tp2316
tp2317
Rp2318
ag0
(g5
g6
(I1
I0
tp2319
tp2320
Rp2321
aa(lp2322
g0
(g5
g6
(I1
I0
tp2323
tp2324
Rp2325
ag0
(g5
g6
(I1
I0
tp2326
tp2327
Rp2328
ag0
(g5
g6
(I1
I0
tp2329
tp2330
Rp2331
ag0
(g5
g6
(I1
I0
tp2332
tp2333
Rp2334
ag0
(g5
g6
(I1
I0
tp2335
tp2336
Rp2337
ag0
(g5
g6
(I1
I0
tp2338
tp2339
Rp2340
ag0
(g5
g6
(I1
I0
tp2341
tp2342
Rp2343
ag0
(g5
g6
(I1
I0
tp2344
tp2345
Rp2346
ag0
(g5
g6
(I1
I0
tp2347
tp2348
Rp2349
ag0
(g5
g6
(I1
I0
tp2350
tp2351
Rp2352
ag0
(g5
g6
(I1
I0
tp2353
tp2354
Rp2355
ag0
(g5
g6
(I1
I0
tp2356
tp2357
Rp2358
ag0
(g5
g6
(I1
I0
tp2359
tp2360
Rp2361
ag0
(g5
g6
(I1
I0
tp2362
tp2363
Rp2364
ag0
(g5
g6
(I1
I0
tp2365
tp2366
Rp2367
ag0
(g5
g6
(I1
I0
tp2368
tp2369
Rp2370
ag0
(g5
g6
(I1
I0
tp2371
tp2372
Rp2373
ag0
(g5
g6
(I1
I0
tp2374
tp2375
Rp2376
ag0
(g5
g6
(I1
I0
tp2377
tp2378
Rp2379
ag0
(g5
g6
(I1
I0
tp2380
tp2381
Rp2382
ag0
(g5
g6
(I1
I0
tp2383
tp2384
Rp2385
ag0
(g5
g6
(I1
I0
tp2386
tp2387
Rp2388
ag0
(g5
g6
(I1
I0
tp2389
tp2390
Rp2391
ag0
(g5
g6
(I1
I-1
tp2392
tp2393
Rp2394
ag0
(g5
g6
(I1
I0
tp2395
tp2396
Rp2397
ag0
(g5
g6
(I1
I-1
tp2398
tp2399
Rp2400
ag0
(g5
g6
(I1
I-1
tp2401
tp2402
Rp2403
ag0
(g5
g6
(I1
I0
tp2404
tp2405
Rp2406
ag0
(g5
g6
(I1
I-1
tp2407
tp2408
Rp2409
ag0
(g5
g6
(I1
I-1
tp2410
tp2411
Rp2412
ag0
(g5
g6
(I1
I-1
tp2413
tp2414
Rp2415
ag0
(g5
g6
(I1
I-1
tp2416
tp2417
Rp2418
ag0
(g5
g6
(I1
I-1
tp2419
tp2420
Rp2421
ag0
(g5
g6
(I1
I0
tp2422
tp2423
Rp2424
ag0
(g5
g6
(I1
I-1
tp2425
tp2426
Rp2427
ag0
(g5
g6
(I1
I-1
tp2428
tp2429
Rp2430
ag0
(g5
g6
(I1
I0
tp2431
tp2432
Rp2433
ag0
(g5
g6
(I1
I-1
tp2434
tp2435
Rp2436
ag0
(g5
g6
(I1
I0
tp2437
tp2438
Rp2439
ag0
(g5
g6
(I1
I0
tp2440
tp2441
Rp2442
ag0
(g5
g6
(I1
I-1
tp2443
tp2444
Rp2445
ag0
(g5
g6
(I1
I-1
tp2446
tp2447
Rp2448
ag0
(g5
g6
(I1
I-1
tp2449
tp2450
Rp2451
ag0
(g5
g6
(I1
I0
tp2452
tp2453
Rp2454
ag0
(g5
g6
(I1
I0
tp2455
tp2456
Rp2457
ag0
(g5
g6
(I1
I0
tp2458
tp2459
Rp2460
ag0
(g5
g6
(I1
I0
tp2461
tp2462
Rp2463
ag0
(g5
g6
(I1
I0
tp2464
tp2465
Rp2466
ag0
(g5
g6
(I1
I0
tp2467
tp2468
Rp2469
ag0
(g5
g6
(I1
I0
tp2470
tp2471
Rp2472
ag0
(g5
g6
(I1
I0
tp2473
tp2474
Rp2475
ag0
(g5
g6
(I1
I0
tp2476
tp2477
Rp2478
ag0
(g5
g6
(I1
I0
tp2479
tp2480
Rp2481
ag0
(g5
g6
(I1
I0
tp2482
tp2483
Rp2484
ag0
(g5
g6
(I1
I0
tp2485
tp2486
Rp2487
ag0
(g5
g6
(I1
I0
tp2488
tp2489
Rp2490
ag0
(g5
g6
(I1
I0
tp2491
tp2492
Rp2493
ag0
(g5
g6
(I1
I0
tp2494
tp2495
Rp2496
ag0
(g5
g6
(I1
I0
tp2497
tp2498
Rp2499
ag0
(g5
g6
(I1
I0
tp2500
tp2501
Rp2502
ag0
(g5
g6
(I1
I0
tp2503
tp2504
Rp2505
ag0
(g5
g6
(I1
I0
tp2506
tp2507
Rp2508
ag0
(g5
g6
(I1
I0
tp2509
tp2510
Rp2511
ag0
(g5
g6
(I1
I0
tp2512
tp2513
Rp2514
aa(lp2515
g0
(g5
g6
(I1
I0
tp2516
tp2517
Rp2518
ag0
(g5
g6
(I1
I0
tp2519
tp2520
Rp2521
ag0
(g5
g6
(I1
I0
tp2522
tp2523
Rp2524
ag0
(g5
g6
(I1
I0
tp2525
tp2526
Rp2527
ag0
(g5
g6
(I1
I0
tp2528
tp2529
Rp2530
ag0
(g5
g6
(I1
I0
tp2531
tp2532
Rp2533
ag0
(g5
g6
(I1
I0
tp2534
tp2535
Rp2536
ag0
(g5
g6
(I1
I0
tp2537
tp2538
Rp2539
ag0
(g5
g6
(I1
I0
tp2540
tp2541
Rp2542
ag0
(g5
g6
(I1
I0
tp2543
tp2544
Rp2545
ag0
(g5
g6
(I1
I0
tp2546
tp2547
Rp2548
ag0
(g5
g6
(I1
I0
tp2549
tp2550
Rp2551
ag0
(g5
g6
(I1
I0
tp2552
tp2553
Rp2554
ag0
(g5
g6
(I1
I0
tp2555
tp2556
Rp2557
ag0
(g5
g6
(I1
I0
tp2558
tp2559
Rp2560
ag0
(g5
g6
(I1
I0
tp2561
tp2562
Rp2563
ag0
(g5
g6
(I1
I0
tp2564
tp2565
Rp2566
ag0
(g5
g6
(I1
I0
tp2567
tp2568
Rp2569
ag0
(g5
g6
(I1
I0
tp2570
tp2571
Rp2572
ag0
(g5
g6
(I1
I0
tp2573
tp2574
Rp2575
ag0
(g5
g6
(I1
I0
tp2576
tp2577
Rp2578
ag0
(g5
g6
(I1
I0
tp2579
tp2580
Rp2581
ag0
(g5
g6
(I1
I0
tp2582
tp2583
Rp2584
ag0
(g5
g6
(I1
I0
tp2585
tp2586
Rp2587
ag0
(g5
g6
(I1
I-1
tp2588
tp2589
Rp2590
ag0
(g5
g6
(I1
I-1
tp2591
tp2592
Rp2593
ag0
(g5
g6
(I1
I0
tp2594
tp2595
Rp2596
ag0
(g5
g6
(I1
I-1
tp2597
tp2598
Rp2599
ag0
(g5
g6
(I1
I-1
tp2600
tp2601
Rp2602
ag0
(g5
g6
(I1
I-1
tp2603
tp2604
Rp2605
ag0
(g5
g6
(I1
I-1
tp2606
tp2607
Rp2608
ag0
(g5
g6
(I1
I-1
tp2609
tp2610
Rp2611
ag0
(g5
g6
(I1
I0
tp2612
tp2613
Rp2614
ag0
(g5
g6
(I1
I-1
tp2615
tp2616
Rp2617
ag0
(g5
g6
(I1
I-1
tp2618
tp2619
Rp2620
ag0
(g5
g6
(I1
I0
tp2621
tp2622
Rp2623
ag0
(g5
g6
(I1
I-1
tp2624
tp2625
Rp2626
ag0
(g5
g6
(I1
I0
tp2627
tp2628
Rp2629
ag0
(g5
g6
(I1
I-1
tp2630
tp2631
Rp2632
ag0
(g5
g6
(I1
I-1
tp2633
tp2634
Rp2635
ag0
(g5
g6
(I1
I-1
tp2636
tp2637
Rp2638
ag0
(g5
g6
(I1
I0
tp2639
tp2640
Rp2641
ag0
(g5
g6
(I1
I0
tp2642
tp2643
Rp2644
ag0
(g5
g6
(I1
I0
tp2645
tp2646
Rp2647
ag0
(g5
g6
(I1
I0
tp2648
tp2649
Rp2650
ag0
(g5
g6
(I1
I0
tp2651
tp2652
Rp2653
ag0
(g5
g6
(I1
I0
tp2654
tp2655
Rp2656
ag0
(g5
g6
(I1
I0
tp2657
tp2658
Rp2659
ag0
(g5
g6
(I1
I0
tp2660
tp2661
Rp2662
ag0
(g5
g6
(I1
I0
tp2663
tp2664
Rp2665
ag0
(g5
g6
(I1
I0
tp2666
tp2667
Rp2668
ag0
(g5
g6
(I1
I0
tp2669
tp2670
Rp2671
ag0
(g5
g6
(I1
I0
tp2672
tp2673
Rp2674
ag0
(g5
g6
(I1
I0
tp2675
tp2676
Rp2677
ag0
(g5
g6
(I1
I0
tp2678
tp2679
Rp2680
ag0
(g5
g6
(I1
I0
tp2681
tp2682
Rp2683
ag0
(g5
g6
(I1
I0
tp2684
tp2685
Rp2686
ag0
(g5
g6
(I1
I0
tp2687
tp2688
Rp2689
ag0
(g5
g6
(I1
I0
tp2690
tp2691
Rp2692
ag0
(g5
g6
(I1
I0
tp2693
tp2694
Rp2695
ag0
(g5
g6
(I1
I0
tp2696
tp2697
Rp2698
ag0
(g5
g6
(I1
I0
tp2699
tp2700
Rp2701
ag0
(g5
g6
(I1
I0
tp2702
tp2703
Rp2704
ag0
(g5
g6
(I1
I0
tp2705
tp2706
Rp2707
aa(lp2708
g0
(g5
g6
(I1
I0
tp2709
tp2710
Rp2711
ag0
(g5
g6
(I1
I0
tp2712
tp2713
Rp2714
ag0
(g5
g6
(I1
I0
tp2715
tp2716
Rp2717
ag0
(g5
g6
(I1
I0
tp2718
tp2719
Rp2720
ag0
(g5
g6
(I1
I0
tp2721
tp2722
Rp2723
ag0
(g5
g6
(I1
I0
tp2724
tp2725
Rp2726
ag0
(g5
g6
(I1
I0
tp2727
tp2728
Rp2729
ag0
(g5
g6
(I1
I0
tp2730
tp2731
Rp2732
ag0
(g5
g6
(I1
I0
tp2733
tp2734
Rp2735
ag0
(g5
g6
(I1
I0
tp2736
tp2737
Rp2738
ag0
(g5
g6
(I1
I0
tp2739
tp2740
Rp2741
ag0
(g5
g6
(I1
I0
tp2742
tp2743
Rp2744
ag0
(g5
g6
(I1
I0
tp2745
tp2746
Rp2747
ag0
(g5
g6
(I1
I0
tp2748
tp2749
Rp2750
ag0
(g5
g6
(I1
I0
tp2751
tp2752
Rp2753
ag0
(g5
g6
(I1
I0
tp2754
tp2755
Rp2756
ag0
(g5
g6
(I1
I0
tp2757
tp2758
Rp2759
ag0
(g5
g6
(I1
I0
tp2760
tp2761
Rp2762
ag0
(g5
g6
(I1
I0
tp2763
tp2764
Rp2765
ag0
(g5
g6
(I1
I0
tp2766
tp2767
Rp2768
ag0
(g5
g6
(I1
I0
tp2769
tp2770
Rp2771
ag0
(g5
g6
(I1
I0
tp2772
tp2773
Rp2774
ag0
(g5
g6
(I1
I0
tp2775
tp2776
Rp2777
ag0
(g5
g6
(I1
I0
tp2778
tp2779
Rp2780
ag0
(g5
g6
(I1
I0
tp2781
tp2782
Rp2783
ag0
(g5
g6
(I1
I-1
tp2784
tp2785
Rp2786
ag0
(g5
g6
(I1
I-1
tp2787
tp2788
Rp2789
ag0
(g5
g6
(I1
I0
tp2790
tp2791
Rp2792
ag0
(g5
g6
(I1
I-1
tp2793
tp2794
Rp2795
ag0
(g5
g6
(I1
I0
tp2796
tp2797
Rp2798
ag0
(g5
g6
(I1
I-1
tp2799
tp2800
Rp2801
ag0
(g5
g6
(I1
I-1
tp2802
tp2803
Rp2804
ag0
(g5
g6
(I1
I0
tp2805
tp2806
Rp2807
ag0
(g5
g6
(I1
I-1
tp2808
tp2809
Rp2810
ag0
(g5
g6
(I1
I-1
tp2811
tp2812
Rp2813
ag0
(g5
g6
(I1
I0
tp2814
tp2815
Rp2816
ag0
(g5
g6
(I1
I-1
tp2817
tp2818
Rp2819
ag0
(g5
g6
(I1
I-1
tp2820
tp2821
Rp2822
ag0
(g5
g6
(I1
I0
tp2823
tp2824
Rp2825
ag0
(g5
g6
(I1
I-1
tp2826
tp2827
Rp2828
ag0
(g5
g6
(I1
I-1
tp2829
tp2830
Rp2831
ag0
(g5
g6
(I1
I0
tp2832
tp2833
Rp2834
ag0
(g5
g6
(I1
I0
tp2835
tp2836
Rp2837
ag0
(g5
g6
(I1
I0
tp2838
tp2839
Rp2840
ag0
(g5
g6
(I1
I0
tp2841
tp2842
Rp2843
ag0
(g5
g6
(I1
I0
tp2844
tp2845
Rp2846
ag0
(g5
g6
(I1
I0
tp2847
tp2848
Rp2849
ag0
(g5
g6
(I1
I0
tp2850
tp2851
Rp2852
ag0
(g5
g6
(I1
I0
tp2853
tp2854
Rp2855
ag0
(g5
g6
(I1
I0
tp2856
tp2857
Rp2858
ag0
(g5
g6
(I1
I0
tp2859
tp2860
Rp2861
ag0
(g5
g6
(I1
I0
tp2862
tp2863
Rp2864
ag0
(g5
g6
(I1
I0
tp2865
tp2866
Rp2867
ag0
(g5
g6
(I1
I0
tp2868
tp2869
Rp2870
ag0
(g5
g6
(I1
I0
tp2871
tp2872
Rp2873
ag0
(g5
g6
(I1
I0
tp2874
tp2875
Rp2876
ag0
(g5
g6
(I1
I0
tp2877
tp2878
Rp2879
ag0
(g5
g6
(I1
I0
tp2880
tp2881
Rp2882
ag0
(g5
g6
(I1
I0
tp2883
tp2884
Rp2885
ag0
(g5
g6
(I1
I0
tp2886
tp2887
Rp2888
ag0
(g5
g6
(I1
I0
tp2889
tp2890
Rp2891
ag0
(g5
g6
(I1
I0
tp2892
tp2893
Rp2894
ag0
(g5
g6
(I1
I0
tp2895
tp2896
Rp2897
ag0
(g5
g6
(I1
I0
tp2898
tp2899
Rp2900
aa(lp2901
g0
(g5
g6
(I1
I0
tp2902
tp2903
Rp2904
ag0
(g5
g6
(I1
I0
tp2905
tp2906
Rp2907
ag0
(g5
g6
(I1
I0
tp2908
tp2909
Rp2910
ag0
(g5
g6
(I1
I0
tp2911
tp2912
Rp2913
ag0
(g5
g6
(I1
I0
tp2914
tp2915
Rp2916
ag0
(g5
g6
(I1
I0
tp2917
tp2918
Rp2919
ag0
(g5
g6
(I1
I0
tp2920
tp2921
Rp2922
ag0
(g5
g6
(I1
I0
tp2923
tp2924
Rp2925
ag0
(g5
g6
(I1
I0
tp2926
tp2927
Rp2928
ag0
(g5
g6
(I1
I0
tp2929
tp2930
Rp2931
ag0
(g5
g6
(I1
I0
tp2932
tp2933
Rp2934
ag0
(g5
g6
(I1
I0
tp2935
tp2936
Rp2937
ag0
(g5
g6
(I1
I0
tp2938
tp2939
Rp2940
ag0
(g5
g6
(I1
I0
tp2941
tp2942
Rp2943
ag0
(g5
g6
(I1
I0
tp2944
tp2945
Rp2946
ag0
(g5
g6
(I1
I0
tp2947
tp2948
Rp2949
ag0
(g5
g6
(I1
I0
tp2950
tp2951
Rp2952
ag0
(g5
g6
(I1
I0
tp2953
tp2954
Rp2955
ag0
(g5
g6
(I1
I0
tp2956
tp2957
Rp2958
ag0
(g5
g6
(I1
I0
tp2959
tp2960
Rp2961
ag0
(g5
g6
(I1
I0
tp2962
tp2963
Rp2964
ag0
(g5
g6
(I1
I0
tp2965
tp2966
Rp2967
ag0
(g5
g6
(I1
I0
tp2968
tp2969
Rp2970
ag0
(g5
g6
(I1
I0
tp2971
tp2972
Rp2973
ag0
(g5
g6
(I1
I0
tp2974
tp2975
Rp2976
ag0
(g5
g6
(I1
I0
tp2977
tp2978
Rp2979
ag0
(g5
g6
(I1
I-1
tp2980
tp2981
Rp2982
ag0
(g5
g6
(I1
I-1
tp2983
tp2984
Rp2985
ag0
(g5
g6
(I1
I0
tp2986
tp2987
Rp2988
ag0
(g5
g6
(I1
I0
tp2989
tp2990
Rp2991
ag0
(g5
g6
(I1
I-1
tp2992
tp2993
Rp2994
ag0
(g5
g6
(I1
I-1
tp2995
tp2996
Rp2997
ag0
(g5
g6
(I1
I-1
tp2998
tp2999
Rp3000
ag0
(g5
g6
(I1
I-1
tp3001
tp3002
Rp3003
ag0
(g5
g6
(I1
I0
tp3004
tp3005
Rp3006
ag0
(g5
g6
(I1
I0
tp3007
tp3008
Rp3009
ag0
(g5
g6
(I1
I-1
tp3010
tp3011
Rp3012
ag0
(g5
g6
(I1
I0
tp3013
tp3014
Rp3015
ag0
(g5
g6
(I1
I0
tp3016
tp3017
Rp3018
ag0
(g5
g6
(I1
I-1
tp3019
tp3020
Rp3021
ag0
(g5
g6
(I1
I0
tp3022
tp3023
Rp3024
ag0
(g5
g6
(I1
I0
tp3025
tp3026
Rp3027
ag0
(g5
g6
(I1
I0
tp3028
tp3029
Rp3030
ag0
(g5
g6
(I1
I0
tp3031
tp3032
Rp3033
ag0
(g5
g6
(I1
I0
tp3034
tp3035
Rp3036
ag0
(g5
g6
(I1
I0
tp3037
tp3038
Rp3039
ag0
(g5
g6
(I1
I0
tp3040
tp3041
Rp3042
ag0
(g5
g6
(I1
I0
tp3043
tp3044
Rp3045
ag0
(g5
g6
(I1
I0
tp3046
tp3047
Rp3048
ag0
(g5
g6
(I1
I0
tp3049
tp3050
Rp3051
ag0
(g5
g6
(I1
I0
tp3052
tp3053
Rp3054
ag0
(g5
g6
(I1
I0
tp3055
tp3056
Rp3057
ag0
(g5
g6
(I1
I0
tp3058
tp3059
Rp3060
ag0
(g5
g6
(I1
I0
tp3061
tp3062
Rp3063
ag0
(g5
g6
(I1
I0
tp3064
tp3065
Rp3066
ag0
(g5
g6
(I1
I0
tp3067
tp3068
Rp3069
ag0
(g5
g6
(I1
I0
tp3070
tp3071
Rp3072
ag0
(g5
g6
(I1
I0
tp3073
tp3074
Rp3075
ag0
(g5
g6
(I1
I0
tp3076
tp3077
Rp3078
ag0
(g5
g6
(I1
I0
tp3079
tp3080
Rp3081
ag0
(g5
g6
(I1
I0
tp3082
tp3083
Rp3084
ag0
(g5
g6
(I1
I0
tp3085
tp3086
Rp3087
ag0
(g5
g6
(I1
I0
tp3088
tp3089
Rp3090
ag0
(g5
g6
(I1
I0
tp3091
tp3092
Rp3093
aa(lp3094
g0
(g5
g6
(I1
I0
tp3095
tp3096
Rp3097
ag0
(g5
g6
(I1
I0
tp3098
tp3099
Rp3100
ag0
(g5
g6
(I1
I0
tp3101
tp3102
Rp3103
ag0
(g5
g6
(I1
I0
tp3104
tp3105
Rp3106
ag0
(g5
g6
(I1
I0
tp3107
tp3108
Rp3109
ag0
(g5
g6
(I1
I0
tp3110
tp3111
Rp3112
ag0
(g5
g6
(I1
I0
tp3113
tp3114
Rp3115
ag0
(g5
g6
(I1
I0
tp3116
tp3117
Rp3118
ag0
(g5
g6
(I1
I0
tp3119
tp3120
Rp3121
ag0
(g5
g6
(I1
I0
tp3122
tp3123
Rp3124
ag0
(g5
g6
(I1
I0
tp3125
tp3126
Rp3127
ag0
(g5
g6
(I1
I0
tp3128
tp3129
Rp3130
ag0
(g5
g6
(I1
I0
tp3131
tp3132
Rp3133
ag0
(g5
g6
(I1
I0
tp3134
tp3135
Rp3136
ag0
(g5
g6
(I1
I0
tp3137
tp3138
Rp3139
ag0
(g5
g6
(I1
I0
tp3140
tp3141
Rp3142
ag0
(g5
g6
(I1
I0
tp3143
tp3144
Rp3145
ag0
(g5
g6
(I1
I0
tp3146
tp3147
Rp3148
ag0
(g5
g6
(I1
I0
tp3149
tp3150
Rp3151
ag0
(g5
g6
(I1
I0
tp3152
tp3153
Rp3154
ag0
(g5
g6
(I1
I0
tp3155
tp3156
Rp3157
ag0
(g5
g6
(I1
I0
tp3158
tp3159
Rp3160
ag0
(g5
g6
(I1
I0
tp3161
tp3162
Rp3163
ag0
(g5
g6
(I1
I0
tp3164
tp3165
Rp3166
ag0
(g5
g6
(I1
I0
tp3167
tp3168
Rp3169
ag0
(g5
g6
(I1
I0
tp3170
tp3171
Rp3172
ag0
(g5
g6
(I1
I0
tp3173
tp3174
Rp3175
ag0
(g5
g6
(I1
I-1
tp3176
tp3177
Rp3178
ag0
(g5
g6
(I1
I0
tp3179
tp3180
Rp3181
ag0
(g5
g6
(I1
I0
tp3182
tp3183
Rp3184
ag0
(g5
g6
(I1
I-1
tp3185
tp3186
Rp3187
ag0
(g5
g6
(I1
I-1
tp3188
tp3189
Rp3190
ag0
(g5
g6
(I1
I0
tp3191
tp3192
Rp3193
ag0
(g5
g6
(I1
I-1
tp3194
tp3195
Rp3196
ag0
(g5
g6
(I1
I-1
tp3197
tp3198
Rp3199
ag0
(g5
g6
(I1
I0
tp3200
tp3201
Rp3202
ag0
(g5
g6
(I1
I-1
tp3203
tp3204
Rp3205
ag0
(g5
g6
(I1
I0
tp3206
tp3207
Rp3208
ag0
(g5
g6
(I1
I0
tp3209
tp3210
Rp3211
ag0
(g5
g6
(I1
I0
tp3212
tp3213
Rp3214
ag0
(g5
g6
(I1
I0
tp3215
tp3216
Rp3217
ag0
(g5
g6
(I1
I0
tp3218
tp3219
Rp3220
ag0
(g5
g6
(I1
I0
tp3221
tp3222
Rp3223
ag0
(g5
g6
(I1
I0
tp3224
tp3225
Rp3226
ag0
(g5
g6
(I1
I0
tp3227
tp3228
Rp3229
ag0
(g5
g6
(I1
I0
tp3230
tp3231
Rp3232
ag0
(g5
g6
(I1
I0
tp3233
tp3234
Rp3235
ag0
(g5
g6
(I1
I0
tp3236
tp3237
Rp3238
ag0
(g5
g6
(I1
I0
tp3239
tp3240
Rp3241
ag0
(g5
g6
(I1
I0
tp3242
tp3243
Rp3244
ag0
(g5
g6
(I1
I0
tp3245
tp3246
Rp3247
ag0
(g5
g6
(I1
I0
tp3248
tp3249
Rp3250
ag0
(g5
g6
(I1
I0
tp3251
tp3252
Rp3253
ag0
(g5
g6
(I1
I0
tp3254
tp3255
Rp3256
ag0
(g5
g6
(I1
I0
tp3257
tp3258
Rp3259
ag0
(g5
g6
(I1
I0
tp3260
tp3261
Rp3262
ag0
(g5
g6
(I1
I0
tp3263
tp3264
Rp3265
ag0
(g5
g6
(I1
I0
tp3266
tp3267
Rp3268
ag0
(g5
g6
(I1
I0
tp3269
tp3270
Rp3271
ag0
(g5
g6
(I1
I0
tp3272
tp3273
Rp3274
ag0
(g5
g6
(I1
I0
tp3275
tp3276
Rp3277
ag0
(g5
g6
(I1
I0
tp3278
tp3279
Rp3280
ag0
(g5
g6
(I1
I0
tp3281
tp3282
Rp3283
ag0
(g5
g6
(I1
I0
tp3284
tp3285
Rp3286
aa(lp3287
g0
(g5
g6
(I1
I0
tp3288
tp3289
Rp3290
ag0
(g5
g6
(I1
I0
tp3291
tp3292
Rp3293
ag0
(g5
g6
(I1
I0
tp3294
tp3295
Rp3296
ag0
(g5
g6
(I1
I0
tp3297
tp3298
Rp3299
ag0
(g5
g6
(I1
I0
tp3300
tp3301
Rp3302
ag0
(g5
g6
(I1
I0
tp3303
tp3304
Rp3305
ag0
(g5
g6
(I1
I0
tp3306
tp3307
Rp3308
ag0
(g5
g6
(I1
I0
tp3309
tp3310
Rp3311
ag0
(g5
g6
(I1
I0
tp3312
tp3313
Rp3314
ag0
(g5
g6
(I1
I0
tp3315
tp3316
Rp3317
ag0
(g5
g6
(I1
I0
tp3318
tp3319
Rp3320
ag0
(g5
g6
(I1
I0
tp3321
tp3322
Rp3323
ag0
(g5
g6
(I1
I0
tp3324
tp3325
Rp3326
ag0
(g5
g6
(I1
I0
tp3327
tp3328
Rp3329
ag0
(g5
g6
(I1
I0
tp3330
tp3331
Rp3332
ag0
(g5
g6
(I1
I0
tp3333
tp3334
Rp3335
ag0
(g5
g6
(I1
I0
tp3336
tp3337
Rp3338
ag0
(g5
g6
(I1
I0
tp3339
tp3340
Rp3341
ag0
(g5
g6
(I1
I0
tp3342
tp3343
Rp3344
ag0
(g5
g6
(I1
I0
tp3345
tp3346
Rp3347
ag0
(g5
g6
(I1
I0
tp3348
tp3349
Rp3350
ag0
(g5
g6
(I1
I0
tp3351
tp3352
Rp3353
ag0
(g5
g6
(I1
I0
tp3354
tp3355
Rp3356
ag0
(g5
g6
(I1
I0
tp3357
tp3358
Rp3359
ag0
(g5
g6
(I1
I0
tp3360
tp3361
Rp3362
ag0
(g5
g6
(I1
I0
tp3363
tp3364
Rp3365
ag0
(g5
g6
(I1
I0
tp3366
tp3367
Rp3368
ag0
(g5
g6
(I1
I0
tp3369
tp3370
Rp3371
ag0
(g5
g6
(I1
I0
tp3372
tp3373
Rp3374
ag0
(g5
g6
(I1
I0
tp3375
tp3376
Rp3377
ag0
(g5
g6
(I1
I0
tp3378
tp3379
Rp3380
ag0
(g5
g6
(I1
I0
tp3381
tp3382
Rp3383
ag0
(g5
g6
(I1
I-1
tp3384
tp3385
Rp3386
ag0
(g5
g6
(I1
I-1
tp3387
tp3388
Rp3389
ag0
(g5
g6
(I1
I-1
tp3390
tp3391
Rp3392
ag0
(g5
g6
(I1
I-1
tp3393
tp3394
Rp3395
ag0
(g5
g6
(I1
I0
tp3396
tp3397
Rp3398
ag0
(g5
g6
(I1
I0
tp3399
tp3400
Rp3401
ag0
(g5
g6
(I1
I0
tp3402
tp3403
Rp3404
ag0
(g5
g6
(I1
I0
tp3405
tp3406
Rp3407
ag0
(g5
g6
(I1
I0
tp3408
tp3409
Rp3410
ag0
(g5
g6
(I1
I0
tp3411
tp3412
Rp3413
ag0
(g5
g6
(I1
I0
tp3414
tp3415
Rp3416
ag0
(g5
g6
(I1
I0
tp3417
tp3418
Rp3419
ag0
(g5
g6
(I1
I0
tp3420
tp3421
Rp3422
ag0
(g5
g6
(I1
I0
tp3423
tp3424
Rp3425
ag0
(g5
g6
(I1
I0
tp3426
tp3427
Rp3428
ag0
(g5
g6
(I1
I0
tp3429
tp3430
Rp3431
ag0
(g5
g6
(I1
I0
tp3432
tp3433
Rp3434
ag0
(g5
g6
(I1
I0
tp3435
tp3436
Rp3437
ag0
(g5
g6
(I1
I0
tp3438
tp3439
Rp3440
ag0
(g5
g6
(I1
I0
tp3441
tp3442
Rp3443
ag0
(g5
g6
(I1
I0
tp3444
tp3445
Rp3446
ag0
(g5
g6
(I1
I0
tp3447
tp3448
Rp3449
ag0
(g5
g6
(I1
I0
tp3450
tp3451
Rp3452
ag0
(g5
g6
(I1
I0
tp3453
tp3454
Rp3455
ag0
(g5
g6
(I1
I0
tp3456
tp3457
Rp3458
ag0
(g5
g6
(I1
I0
tp3459
tp3460
Rp3461
ag0
(g5
g6
(I1
I0
tp3462
tp3463
Rp3464
ag0
(g5
g6
(I1
I0
tp3465
tp3466
Rp3467
ag0
(g5
g6
(I1
I0
tp3468
tp3469
Rp3470
ag0
(g5
g6
(I1
I0
tp3471
tp3472
Rp3473
ag0
(g5
g6
(I1
I0
tp3474
tp3475
Rp3476
ag0
(g5
g6
(I1
I0
tp3477
tp3478
Rp3479
aa(lp3480
g0
(g5
g6
(I1
I0
tp3481
tp3482
Rp3483
ag0
(g5
g6
(I1
I0
tp3484
tp3485
Rp3486
ag0
(g5
g6
(I1
I0
tp3487
tp3488
Rp3489
ag0
(g5
g6
(I1
I0
tp3490
tp3491
Rp3492
ag0
(g5
g6
(I1
I0
tp3493
tp3494
Rp3495
ag0
(g5
g6
(I1
I0
tp3496
tp3497
Rp3498
ag0
(g5
g6
(I1
I0
tp3499
tp3500
Rp3501
ag0
(g5
g6
(I1
I0
tp3502
tp3503
Rp3504
ag0
(g5
g6
(I1
I0
tp3505
tp3506
Rp3507
ag0
(g5
g6
(I1
I0
tp3508
tp3509
Rp3510
ag0
(g5
g6
(I1
I0
tp3511
tp3512
Rp3513
ag0
(g5
g6
(I1
I0
tp3514
tp3515
Rp3516
ag0
(g5
g6
(I1
I0
tp3517
tp3518
Rp3519
ag0
(g5
g6
(I1
I0
tp3520
tp3521
Rp3522
ag0
(g5
g6
(I1
I0
tp3523
tp3524
Rp3525
ag0
(g5
g6
(I1
I0
tp3526
tp3527
Rp3528
ag0
(g5
g6
(I1
I0
tp3529
tp3530
Rp3531
ag0
(g5
g6
(I1
I0
tp3532
tp3533
Rp3534
ag0
(g5
g6
(I1
I0
tp3535
tp3536
Rp3537
ag0
(g5
g6
(I1
I0
tp3538
tp3539
Rp3540
ag0
(g5
g6
(I1
I0
tp3541
tp3542
Rp3543
ag0
(g5
g6
(I1
I0
tp3544
tp3545
Rp3546
ag0
(g5
g6
(I1
I0
tp3547
tp3548
Rp3549
ag0
(g5
g6
(I1
I0
tp3550
tp3551
Rp3552
ag0
(g5
g6
(I1
I0
tp3553
tp3554
Rp3555
ag0
(g5
g6
(I1
I0
tp3556
tp3557
Rp3558
ag0
(g5
g6
(I1
I0
tp3559
tp3560
Rp3561
ag0
(g5
g6
(I1
I0
tp3562
tp3563
Rp3564
ag0
(g5
g6
(I1
I0
tp3565
tp3566
Rp3567
ag0
(g5
g6
(I1
I-1
tp3568
tp3569
Rp3570
ag0
(g5
g6
(I1
I0
tp3571
tp3572
Rp3573
ag0
(g5
g6
(I1
I-1
tp3574
tp3575
Rp3576
ag0
(g5
g6
(I1
I-1
tp3577
tp3578
Rp3579
ag0
(g5
g6
(I1
I-1
tp3580
tp3581
Rp3582
ag0
(g5
g6
(I1
I-1
tp3583
tp3584
Rp3585
ag0
(g5
g6
(I1
I-1
tp3586
tp3587
Rp3588
ag0
(g5
g6
(I1
I0
tp3589
tp3590
Rp3591
ag0
(g5
g6
(I1
I0
tp3592
tp3593
Rp3594
ag0
(g5
g6
(I1
I0
tp3595
tp3596
Rp3597
ag0
(g5
g6
(I1
I0
tp3598
tp3599
Rp3600
ag0
(g5
g6
(I1
I0
tp3601
tp3602
Rp3603
ag0
(g5
g6
(I1
I0
tp3604
tp3605
Rp3606
ag0
(g5
g6
(I1
I0
tp3607
tp3608
Rp3609
ag0
(g5
g6
(I1
I0
tp3610
tp3611
Rp3612
ag0
(g5
g6
(I1
I0
tp3613
tp3614
Rp3615
ag0
(g5
g6
(I1
I0
tp3616
tp3617
Rp3618
ag0
(g5
g6
(I1
I0
tp3619
tp3620
Rp3621
ag0
(g5
g6
(I1
I0
tp3622
tp3623
Rp3624
ag0
(g5
g6
(I1
I0
tp3625
tp3626
Rp3627
ag0
(g5
g6
(I1
I0
tp3628
tp3629
Rp3630
ag0
(g5
g6
(I1
I0
tp3631
tp3632
Rp3633
ag0
(g5
g6
(I1
I0
tp3634
tp3635
Rp3636
ag0
(g5
g6
(I1
I0
tp3637
tp3638
Rp3639
ag0
(g5
g6
(I1
I0
tp3640
tp3641
Rp3642
ag0
(g5
g6
(I1
I0
tp3643
tp3644
Rp3645
ag0
(g5
g6
(I1
I0
tp3646
tp3647
Rp3648
ag0
(g5
g6
(I1
I0
tp3649
tp3650
Rp3651
ag0
(g5
g6
(I1
I0
tp3652
tp3653
Rp3654
ag0
(g5
g6
(I1
I0
tp3655
tp3656
Rp3657
ag0
(g5
g6
(I1
I0
tp3658
tp3659
Rp3660
ag0
(g5
g6
(I1
I0
tp3661
tp3662
Rp3663
ag0
(g5
g6
(I1
I0
tp3664
tp3665
Rp3666
ag0
(g5
g6
(I1
I0
tp3667
tp3668
Rp3669
ag0
(g5
g6
(I1
I0
tp3670
tp3671
Rp3672
aa(lp3673
g0
(g5
g6
(I1
I0
tp3674
tp3675
Rp3676
ag0
(g5
g6
(I1
I0
tp3677
tp3678
Rp3679
ag0
(g5
g6
(I1
I0
tp3680
tp3681
Rp3682
ag0
(g5
g6
(I1
I0
tp3683
tp3684
Rp3685
ag0
(g5
g6
(I1
I0
tp3686
tp3687
Rp3688
ag0
(g5
g6
(I1
I0
tp3689
tp3690
Rp3691
ag0
(g5
g6
(I1
I0
tp3692
tp3693
Rp3694
ag0
(g5
g6
(I1
I0
tp3695
tp3696
Rp3697
ag0
(g5
g6
(I1
I0
tp3698
tp3699
Rp3700
ag0
(g5
g6
(I1
I0
tp3701
tp3702
Rp3703
ag0
(g5
g6
(I1
I0
tp3704
tp3705
Rp3706
ag0
(g5
g6
(I1
I0
tp3707
tp3708
Rp3709
ag0
(g5
g6
(I1
I0
tp3710
tp3711
Rp3712
ag0
(g5
g6
(I1
I0
tp3713
tp3714
Rp3715
ag0
(g5
g6
(I1
I0
tp3716
tp3717
Rp3718
ag0
(g5
g6
(I1
I0
tp3719
tp3720
Rp3721
ag0
(g5
g6
(I1
I0
tp3722
tp3723
Rp3724
ag0
(g5
g6
(I1
I0
tp3725
tp3726
Rp3727
ag0
(g5
g6
(I1
I0
tp3728
tp3729
Rp3730
ag0
(g5
g6
(I1
I0
tp3731
tp3732
Rp3733
ag0
(g5
g6
(I1
I0
tp3734
tp3735
Rp3736
ag0
(g5
g6
(I1
I0
tp3737
tp3738
Rp3739
ag0
(g5
g6
(I1
I0
tp3740
tp3741
Rp3742
ag0
(g5
g6
(I1
I0
tp3743
tp3744
Rp3745
ag0
(g5
g6
(I1
I0
tp3746
tp3747
Rp3748
ag0
(g5
g6
(I1
I0
tp3749
tp3750
Rp3751
ag0
(g5
g6
(I1
I0
tp3752
tp3753
Rp3754
ag0
(g5
g6
(I1
I0
tp3755
tp3756
Rp3757
ag0
(g5
g6
(I1
I0
tp3758
tp3759
Rp3760
ag0
(g5
g6
(I1
I0
tp3761
tp3762
Rp3763
ag0
(g5
g6
(I1
I-1
tp3764
tp3765
Rp3766
ag0
(g5
g6
(I1
I-1
tp3767
tp3768
Rp3769
ag0
(g5
g6
(I1
I-1
tp3770
tp3771
Rp3772
ag0
(g5
g6
(I1
I-1
tp3773
tp3774
Rp3775
ag0
(g5
g6
(I1
I-1
tp3776
tp3777
Rp3778
ag0
(g5
g6
(I1
I0
tp3779
tp3780
Rp3781
ag0
(g5
g6
(I1
I0
tp3782
tp3783
Rp3784
ag0
(g5
g6
(I1
I0
tp3785
tp3786
Rp3787
ag0
(g5
g6
(I1
I0
tp3788
tp3789
Rp3790
ag0
(g5
g6
(I1
I0
tp3791
tp3792
Rp3793
ag0
(g5
g6
(I1
I0
tp3794
tp3795
Rp3796
ag0
(g5
g6
(I1
I0
tp3797
tp3798
Rp3799
ag0
(g5
g6
(I1
I0
tp3800
tp3801
Rp3802
ag0
(g5
g6
(I1
I0
tp3803
tp3804
Rp3805
ag0
(g5
g6
(I1
I0
tp3806
tp3807
Rp3808
ag0
(g5
g6
(I1
I0
tp3809
tp3810
Rp3811
ag0
(g5
g6
(I1
I0
tp3812
tp3813
Rp3814
ag0
(g5
g6
(I1
I0
tp3815
tp3816
Rp3817
ag0
(g5
g6
(I1
I0
tp3818
tp3819
Rp3820
ag0
(g5
g6
(I1
I0
tp3821
tp3822
Rp3823
ag0
(g5
g6
(I1
I0
tp3824
tp3825
Rp3826
ag0
(g5
g6
(I1
I0
tp3827
tp3828
Rp3829
ag0
(g5
g6
(I1
I0
tp3830
tp3831
Rp3832
ag0
(g5
g6
(I1
I0
tp3833
tp3834
Rp3835
ag0
(g5
g6
(I1
I0
tp3836
tp3837
Rp3838
ag0
(g5
g6
(I1
I0
tp3839
tp3840
Rp3841
ag0
(g5
g6
(I1
I0
tp3842
tp3843
Rp3844
ag0
(g5
g6
(I1
I0
tp3845
tp3846
Rp3847
ag0
(g5
g6
(I1
I0
tp3848
tp3849
Rp3850
ag0
(g5
g6
(I1
I0
tp3851
tp3852
Rp3853
ag0
(g5
g6
(I1
I0
tp3854
tp3855
Rp3856
ag0
(g5
g6
(I1
I0
tp3857
tp3858
Rp3859
ag0
(g5
g6
(I1
I0
tp3860
tp3861
Rp3862
ag0
(g5
g6
(I1
I0
tp3863
tp3864
Rp3865
aa(lp3866
g0
(g5
g6
(I1
I0
tp3867
tp3868
Rp3869
ag0
(g5
g6
(I1
I0
tp3870
tp3871
Rp3872
ag0
(g5
g6
(I1
I0
tp3873
tp3874
Rp3875
ag0
(g5
g6
(I1
I0
tp3876
tp3877
Rp3878
ag0
(g5
g6
(I1
I0
tp3879
tp3880
Rp3881
ag0
(g5
g6
(I1
I0
tp3882
tp3883
Rp3884
ag0
(g5
g6
(I1
I0
tp3885
tp3886
Rp3887
ag0
(g5
g6
(I1
I0
tp3888
tp3889
Rp3890
ag0
(g5
g6
(I1
I0
tp3891
tp3892
Rp3893
ag0
(g5
g6
(I1
I0
tp3894
tp3895
Rp3896
ag0
(g5
g6
(I1
I0
tp3897
tp3898
Rp3899
ag0
(g5
g6
(I1
I0
tp3900
tp3901
Rp3902
ag0
(g5
g6
(I1
I0
tp3903
tp3904
Rp3905
ag0
(g5
g6
(I1
I0
tp3906
tp3907
Rp3908
ag0
(g5
g6
(I1
I0
tp3909
tp3910
Rp3911
ag0
(g5
g6
(I1
I0
tp3912
tp3913
Rp3914
ag0
(g5
g6
(I1
I0
tp3915
tp3916
Rp3917
ag0
(g5
g6
(I1
I0
tp3918
tp3919
Rp3920
ag0
(g5
g6
(I1
I0
tp3921
tp3922
Rp3923
ag0
(g5
g6
(I1
I0
tp3924
tp3925
Rp3926
ag0
(g5
g6
(I1
I0
tp3927
tp3928
Rp3929
ag0
(g5
g6
(I1
I0
tp3930
tp3931
Rp3932
ag0
(g5
g6
(I1
I0
tp3933
tp3934
Rp3935
ag0
(g5
g6
(I1
I0
tp3936
tp3937
Rp3938
ag0
(g5
g6
(I1
I0
tp3939
tp3940
Rp3941
ag0
(g5
g6
(I1
I0
tp3942
tp3943
Rp3944
ag0
(g5
g6
(I1
I0
tp3945
tp3946
Rp3947
ag0
(g5
g6
(I1
I0
tp3948
tp3949
Rp3950
ag0
(g5
g6
(I1
I0
tp3951
tp3952
Rp3953
ag0
(g5
g6
(I1
I0
tp3954
tp3955
Rp3956
ag0
(g5
g6
(I1
I0
tp3957
tp3958
Rp3959
ag0
(g5
g6
(I1
I-1
tp3960
tp3961
Rp3962
ag0
(g5
g6
(I1
I-1
tp3963
tp3964
Rp3965
ag0
(g5
g6
(I1
I-1
tp3966
tp3967
Rp3968
ag0
(g5
g6
(I1
I-1
tp3969
tp3970
Rp3971
ag0
(g5
g6
(I1
I0
tp3972
tp3973
Rp3974
ag0
(g5
g6
(I1
I0
tp3975
tp3976
Rp3977
ag0
(g5
g6
(I1
I0
tp3978
tp3979
Rp3980
ag0
(g5
g6
(I1
I0
tp3981
tp3982
Rp3983
ag0
(g5
g6
(I1
I0
tp3984
tp3985
Rp3986
ag0
(g5
g6
(I1
I0
tp3987
tp3988
Rp3989
ag0
(g5
g6
(I1
I0
tp3990
tp3991
Rp3992
ag0
(g5
g6
(I1
I0
tp3993
tp3994
Rp3995
ag0
(g5
g6
(I1
I0
tp3996
tp3997
Rp3998
ag0
(g5
g6
(I1
I0
tp3999
tp4000
Rp4001
ag0
(g5
g6
(I1
I0
tp4002
tp4003
Rp4004
ag0
(g5
g6
(I1
I0
tp4005
tp4006
Rp4007
ag0
(g5
g6
(I1
I0
tp4008
tp4009
Rp4010
ag0
(g5
g6
(I1
I0
tp4011
tp4012
Rp4013
ag0
(g5
g6
(I1
I0
tp4014
tp4015
Rp4016
ag0
(g5
g6
(I1
I0
tp4017
tp4018
Rp4019
ag0
(g5
g6
(I1
I0
tp4020
tp4021
Rp4022
ag0
(g5
g6
(I1
I0
tp4023
tp4024
Rp4025
ag0
(g5
g6
(I1
I0
tp4026
tp4027
Rp4028
ag0
(g5
g6
(I1
I0
tp4029
tp4030
Rp4031
ag0
(g5
g6
(I1
I0
tp4032
tp4033
Rp4034
ag0
(g5
g6
(I1
I0
tp4035
tp4036
Rp4037
ag0
(g5
g6
(I1
I0
tp4038
tp4039
Rp4040
ag0
(g5
g6
(I1
I0
tp4041
tp4042
Rp4043
ag0
(g5
g6
(I1
I0
tp4044
tp4045
Rp4046
ag0
(g5
g6
(I1
I0
tp4047
tp4048
Rp4049
ag0
(g5
g6
(I1
I0
tp4050
tp4051
Rp4052
ag0
(g5
g6
(I1
I0
tp4053
tp4054
Rp4055
ag0
(g5
g6
(I1
I0
tp4056
tp4057
Rp4058
aa(lp4059
g0
(g5
g6
(I1
I0
tp4060
tp4061
Rp4062
ag0
(g5
g6
(I1
I0
tp4063
tp4064
Rp4065
ag0
(g5
g6
(I1
I0
tp4066
tp4067
Rp4068
ag0
(g5
g6
(I1
I0
tp4069
tp4070
Rp4071
ag0
(g5
g6
(I1
I0
tp4072
tp4073
Rp4074
ag0
(g5
g6
(I1
I0
tp4075
tp4076
Rp4077
ag0
(g5
g6
(I1
I0
tp4078
tp4079
Rp4080
ag0
(g5
g6
(I1
I0
tp4081
tp4082
Rp4083
ag0
(g5
g6
(I1
I0
tp4084
tp4085
Rp4086
ag0
(g5
g6
(I1
I0
tp4087
tp4088
Rp4089
ag0
(g5
g6
(I1
I0
tp4090
tp4091
Rp4092
ag0
(g5
g6
(I1
I0
tp4093
tp4094
Rp4095
ag0
(g5
g6
(I1
I0
tp4096
tp4097
Rp4098
ag0
(g5
g6
(I1
I0
tp4099
tp4100
Rp4101
ag0
(g5
g6
(I1
I0
tp4102
tp4103
Rp4104
ag0
(g5
g6
(I1
I0
tp4105
tp4106
Rp4107
ag0
(g5
g6
(I1
I0
tp4108
tp4109
Rp4110
ag0
(g5
g6
(I1
I0
tp4111
tp4112
Rp4113
ag0
(g5
g6
(I1
I0
tp4114
tp4115
Rp4116
ag0
(g5
g6
(I1
I0
tp4117
tp4118
Rp4119
ag0
(g5
g6
(I1
I0
tp4120
tp4121
Rp4122
ag0
(g5
g6
(I1
I0
tp4123
tp4124
Rp4125
ag0
(g5
g6
(I1
I0
tp4126
tp4127
Rp4128
ag0
(g5
g6
(I1
I0
tp4129
tp4130
Rp4131
ag0
(g5
g6
(I1
I0
tp4132
tp4133
Rp4134
ag0
(g5
g6
(I1
I0
tp4135
tp4136
Rp4137
ag0
(g5
g6
(I1
I0
tp4138
tp4139
Rp4140
ag0
(g5
g6
(I1
I0
tp4141
tp4142
Rp4143
ag0
(g5
g6
(I1
I0
tp4144
tp4145
Rp4146
ag0
(g5
g6
(I1
I0
tp4147
tp4148
Rp4149
ag0
(g5
g6
(I1
I0
tp4150
tp4151
Rp4152
ag0
(g5
g6
(I1
I0
tp4153
tp4154
Rp4155
ag0
(g5
g6
(I1
I0
tp4156
tp4157
Rp4158
ag0
(g5
g6
(I1
I0
tp4159
tp4160
Rp4161
ag0
(g5
g6
(I1
I0
tp4162
tp4163
Rp4164
ag0
(g5
g6
(I1
I0
tp4165
tp4166
Rp4167
ag0
(g5
g6
(I1
I0
tp4168
tp4169
Rp4170
ag0
(g5
g6
(I1
I0
tp4171
tp4172
Rp4173
ag0
(g5
g6
(I1
I0
tp4174
tp4175
Rp4176
ag0
(g5
g6
(I1
I0
tp4177
tp4178
Rp4179
ag0
(g5
g6
(I1
I0
tp4180
tp4181
Rp4182
ag0
(g5
g6
(I1
I0
tp4183
tp4184
Rp4185
ag0
(g5
g6
(I1
I0
tp4186
tp4187
Rp4188
ag0
(g5
g6
(I1
I0
tp4189
tp4190
Rp4191
ag0
(g5
g6
(I1
I0
tp4192
tp4193
Rp4194
ag0
(g5
g6
(I1
I0
tp4195
tp4196
Rp4197
ag0
(g5
g6
(I1
I0
tp4198
tp4199
Rp4200
ag0
(g5
g6
(I1
I0
tp4201
tp4202
Rp4203
ag0
(g5
g6
(I1
I0
tp4204
tp4205
Rp4206
ag0
(g5
g6
(I1
I0
tp4207
tp4208
Rp4209
ag0
(g5
g6
(I1
I0
tp4210
tp4211
Rp4212
ag0
(g5
g6
(I1
I0
tp4213
tp4214
Rp4215
ag0
(g5
g6
(I1
I0
tp4216
tp4217
Rp4218
ag0
(g5
g6
(I1
I0
tp4219
tp4220
Rp4221
ag0
(g5
g6
(I1
I-1
tp4222
tp4223
Rp4224
ag0
(g5
g6
(I1
I0
tp4225
tp4226
Rp4227
ag0
(g5
g6
(I1
I0
tp4228
tp4229
Rp4230
ag0
(g5
g6
(I1
I0
tp4231
tp4232
Rp4233
ag0
(g5
g6
(I1
I0
tp4234
tp4235
Rp4236
ag0
(g5
g6
(I1
I0
tp4237
tp4238
Rp4239
ag0
(g5
g6
(I1
I0
tp4240
tp4241
Rp4242
ag0
(g5
g6
(I1
I0
tp4243
tp4244
Rp4245
ag0
(g5
g6
(I1
I0
tp4246
tp4247
Rp4248
ag0
(g5
g6
(I1
I0
tp4249
tp4250
Rp4251
aa(lp4252
g0
(g5
g6
(I1
I0
tp4253
tp4254
Rp4255
ag0
(g5
g6
(I1
I0
tp4256
tp4257
Rp4258
ag0
(g5
g6
(I1
I0
tp4259
tp4260
Rp4261
ag0
(g5
g6
(I1
I0
tp4262
tp4263
Rp4264
ag0
(g5
g6
(I1
I0
tp4265
tp4266
Rp4267
ag0
(g5
g6
(I1
I0
tp4268
tp4269
Rp4270
ag0
(g5
g6
(I1
I0
tp4271
tp4272
Rp4273
ag0
(g5
g6
(I1
I0
tp4274
tp4275
Rp4276
ag0
(g5
g6
(I1
I0
tp4277
tp4278
Rp4279
ag0
(g5
g6
(I1
I0
tp4280
tp4281
Rp4282
ag0
(g5
g6
(I1
I-1
tp4283
tp4284
Rp4285
ag0
(g5
g6
(I1
I0
tp4286
tp4287
Rp4288
ag0
(g5
g6
(I1
I0
tp4289
tp4290
Rp4291
ag0
(g5
g6
(I1
I0
tp4292
tp4293
Rp4294
ag0
(g5
g6
(I1
I0
tp4295
tp4296
Rp4297
ag0
(g5
g6
(I1
I0
tp4298
tp4299
Rp4300
ag0
(g5
g6
(I1
I0
tp4301
tp4302
Rp4303
ag0
(g5
g6
(I1
I0
tp4304
tp4305
Rp4306
ag0
(g5
g6
(I1
I0
tp4307
tp4308
Rp4309
ag0
(g5
g6
(I1
I0
tp4310
tp4311
Rp4312
ag0
(g5
g6
(I1
I0
tp4313
tp4314
Rp4315
ag0
(g5
g6
(I1
I0
tp4316
tp4317
Rp4318
ag0
(g5
g6
(I1
I0
tp4319
tp4320
Rp4321
ag0
(g5
g6
(I1
I0
tp4322
tp4323
Rp4324
ag0
(g5
g6
(I1
I0
tp4325
tp4326
Rp4327
ag0
(g5
g6
(I1
I0
tp4328
tp4329
Rp4330
ag0
(g5
g6
(I1
I0
tp4331
tp4332
Rp4333
ag0
(g5
g6
(I1
I0
tp4334
tp4335
Rp4336
ag0
(g5
g6
(I1
I0
tp4337
tp4338
Rp4339
ag0
(g5
g6
(I1
I0
tp4340
tp4341
Rp4342
ag0
(g5
g6
(I1
I0
tp4343
tp4344
Rp4345
ag0
(g5
g6
(I1
I0
tp4346
tp4347
Rp4348
ag0
(g5
g6
(I1
I0
tp4349
tp4350
Rp4351
ag0
(g5
g6
(I1
I0
tp4352
tp4353
Rp4354
ag0
(g5
g6
(I1
I0
tp4355
tp4356
Rp4357
ag0
(g5
g6
(I1
I0
tp4358
tp4359
Rp4360
ag0
(g5
g6
(I1
I0
tp4361
tp4362
Rp4363
ag0
(g5
g6
(I1
I0
tp4364
tp4365
Rp4366
ag0
(g5
g6
(I1
I0
tp4367
tp4368
Rp4369
ag0
(g5
g6
(I1
I0
tp4370
tp4371
Rp4372
ag0
(g5
g6
(I1
I0
tp4373
tp4374
Rp4375
ag0
(g5
g6
(I1
I0
tp4376
tp4377
Rp4378
ag0
(g5
g6
(I1
I0
tp4379
tp4380
Rp4381
ag0
(g5
g6
(I1
I0
tp4382
tp4383
Rp4384
ag0
(g5
g6
(I1
I0
tp4385
tp4386
Rp4387
ag0
(g5
g6
(I1
I0
tp4388
tp4389
Rp4390
ag0
(g5
g6
(I1
I0
tp4391
tp4392
Rp4393
ag0
(g5
g6
(I1
I0
tp4394
tp4395
Rp4396
ag0
(g5
g6
(I1
I0
tp4397
tp4398
Rp4399
ag0
(g5
g6
(I1
I0
tp4400
tp4401
Rp4402
ag0
(g5
g6
(I1
I0
tp4403
tp4404
Rp4405
ag0
(g5
g6
(I1
I0
tp4406
tp4407
Rp4408
ag0
(g5
g6
(I1
I0
tp4409
tp4410
Rp4411
ag0
(g5
g6
(I1
I-1
tp4412
tp4413
Rp4414
ag0
(g5
g6
(I1
I-1
tp4415
tp4416
Rp4417
ag0
(g5
g6
(I1
I0
tp4418
tp4419
Rp4420
ag0
(g5
g6
(I1
I0
tp4421
tp4422
Rp4423
ag0
(g5
g6
(I1
I0
tp4424
tp4425
Rp4426
ag0
(g5
g6
(I1
I0
tp4427
tp4428
Rp4429
ag0
(g5
g6
(I1
I0
tp4430
tp4431
Rp4432
ag0
(g5
g6
(I1
I0
tp4433
tp4434
Rp4435
ag0
(g5
g6
(I1
I0
tp4436
tp4437
Rp4438
ag0
(g5
g6
(I1
I0
tp4439
tp4440
Rp4441
ag0
(g5
g6
(I1
I0
tp4442
tp4443
Rp4444
aa(lp4445
g0
(g5
g6
(I1
I0
tp4446
tp4447
Rp4448
ag0
(g5
g6
(I1
I0
tp4449
tp4450
Rp4451
ag0
(g5
g6
(I1
I0
tp4452
tp4453
Rp4454
ag0
(g5
g6
(I1
I0
tp4455
tp4456
Rp4457
ag0
(g5
g6
(I1
I0
tp4458
tp4459
Rp4460
ag0
(g5
g6
(I1
I0
tp4461
tp4462
Rp4463
ag0
(g5
g6
(I1
I0
tp4464
tp4465
Rp4466
ag0
(g5
g6
(I1
I0
tp4467
tp4468
Rp4469
ag0
(g5
g6
(I1
I0
tp4470
tp4471
Rp4472
ag0
(g5
g6
(I1
I0
tp4473
tp4474
Rp4475
ag0
(g5
g6
(I1
I0
tp4476
tp4477
Rp4478
ag0
(g5
g6
(I1
I-1
tp4479
tp4480
Rp4481
ag0
(g5
g6
(I1
I-1
tp4482
tp4483
Rp4484
ag0
(g5
g6
(I1
I0
tp4485
tp4486
Rp4487
ag0
(g5
g6
(I1
I0
tp4488
tp4489
Rp4490
ag0
(g5
g6
(I1
I0
tp4491
tp4492
Rp4493
ag0
(g5
g6
(I1
I0
tp4494
tp4495
Rp4496
ag0
(g5
g6
(I1
I0
tp4497
tp4498
Rp4499
ag0
(g5
g6
(I1
I0
tp4500
tp4501
Rp4502
ag0
(g5
g6
(I1
I0
tp4503
tp4504
Rp4505
ag0
(g5
g6
(I1
I0
tp4506
tp4507
Rp4508
ag0
(g5
g6
(I1
I0
tp4509
tp4510
Rp4511
ag0
(g5
g6
(I1
I0
tp4512
tp4513
Rp4514
ag0
(g5
g6
(I1
I0
tp4515
tp4516
Rp4517
ag0
(g5
g6
(I1
I0
tp4518
tp4519
Rp4520
ag0
(g5
g6
(I1
I0
tp4521
tp4522
Rp4523
ag0
(g5
g6
(I1
I0
tp4524
tp4525
Rp4526
ag0
(g5
g6
(I1
I0
tp4527
tp4528
Rp4529
ag0
(g5
g6
(I1
I0
tp4530
tp4531
Rp4532
ag0
(g5
g6
(I1
I0
tp4533
tp4534
Rp4535
ag0
(g5
g6
(I1
I0
tp4536
tp4537
Rp4538
ag0
(g5
g6
(I1
I0
tp4539
tp4540
Rp4541
ag0
(g5
g6
(I1
I0
tp4542
tp4543
Rp4544
ag0
(g5
g6
(I1
I0
tp4545
tp4546
Rp4547
ag0
(g5
g6
(I1
I0
tp4548
tp4549
Rp4550
ag0
(g5
g6
(I1
I0
tp4551
tp4552
Rp4553
ag0
(g5
g6
(I1
I0
tp4554
tp4555
Rp4556
ag0
(g5
g6
(I1
I0
tp4557
tp4558
Rp4559
ag0
(g5
g6
(I1
I0
tp4560
tp4561
Rp4562
ag0
(g5
g6
(I1
I0
tp4563
tp4564
Rp4565
ag0
(g5
g6
(I1
I0
tp4566
tp4567
Rp4568
ag0
(g5
g6
(I1
I0
tp4569
tp4570
Rp4571
ag0
(g5
g6
(I1
I0
tp4572
tp4573
Rp4574
ag0
(g5
g6
(I1
I0
tp4575
tp4576
Rp4577
ag0
(g5
g6
(I1
I0
tp4578
tp4579
Rp4580
ag0
(g5
g6
(I1
I0
tp4581
tp4582
Rp4583
ag0
(g5
g6
(I1
I0
tp4584
tp4585
Rp4586
ag0
(g5
g6
(I1
I0
tp4587
tp4588
Rp4589
ag0
(g5
g6
(I1
I0
tp4590
tp4591
Rp4592
ag0
(g5
g6
(I1
I0
tp4593
tp4594
Rp4595
ag0
(g5
g6
(I1
I0
tp4596
tp4597
Rp4598
ag0
(g5
g6
(I1
I0
tp4599
tp4600
Rp4601
ag0
(g5
g6
(I1
I-1
tp4602
tp4603
Rp4604
ag0
(g5
g6
(I1
I-1
tp4605
tp4606
Rp4607
ag0
(g5
g6
(I1
I-1
tp4608
tp4609
Rp4610
ag0
(g5
g6
(I1
I0
tp4611
tp4612
Rp4613
ag0
(g5
g6
(I1
I0
tp4614
tp4615
Rp4616
ag0
(g5
g6
(I1
I0
tp4617
tp4618
Rp4619
ag0
(g5
g6
(I1
I0
tp4620
tp4621
Rp4622
ag0
(g5
g6
(I1
I0
tp4623
tp4624
Rp4625
ag0
(g5
g6
(I1
I0
tp4626
tp4627
Rp4628
ag0
(g5
g6
(I1
I0
tp4629
tp4630
Rp4631
ag0
(g5
g6
(I1
I0
tp4632
tp4633
Rp4634
ag0
(g5
g6
(I1
I0
tp4635
tp4636
Rp4637
aa(lp4638
g0
(g5
g6
(I1
I0
tp4639
tp4640
Rp4641
ag0
(g5
g6
(I1
I0
tp4642
tp4643
Rp4644
ag0
(g5
g6
(I1
I0
tp4645
tp4646
Rp4647
ag0
(g5
g6
(I1
I0
tp4648
tp4649
Rp4650
ag0
(g5
g6
(I1
I0
tp4651
tp4652
Rp4653
ag0
(g5
g6
(I1
I0
tp4654
tp4655
Rp4656
ag0
(g5
g6
(I1
I0
tp4657
tp4658
Rp4659
ag0
(g5
g6
(I1
I0
tp4660
tp4661
Rp4662
ag0
(g5
g6
(I1
I0
tp4663
tp4664
Rp4665
ag0
(g5
g6
(I1
I0
tp4666
tp4667
Rp4668
ag0
(g5
g6
(I1
I-1
tp4669
tp4670
Rp4671
ag0
(g5
g6
(I1
I-1
tp4672
tp4673
Rp4674
ag0
(g5
g6
(I1
I-1
tp4675
tp4676
Rp4677
ag0
(g5
g6
(I1
I0
tp4678
tp4679
Rp4680
ag0
(g5
g6
(I1
I0
tp4681
tp4682
Rp4683
ag0
(g5
g6
(I1
I0
tp4684
tp4685
Rp4686
ag0
(g5
g6
(I1
I0
tp4687
tp4688
Rp4689
ag0
(g5
g6
(I1
I0
tp4690
tp4691
Rp4692
ag0
(g5
g6
(I1
I0
tp4693
tp4694
Rp4695
ag0
(g5
g6
(I1
I0
tp4696
tp4697
Rp4698
ag0
(g5
g6
(I1
I0
tp4699
tp4700
Rp4701
ag0
(g5
g6
(I1
I0
tp4702
tp4703
Rp4704
ag0
(g5
g6
(I1
I0
tp4705
tp4706
Rp4707
ag0
(g5
g6
(I1
I0
tp4708
tp4709
Rp4710
ag0
(g5
g6
(I1
I0
tp4711
tp4712
Rp4713
ag0
(g5
g6
(I1
I0
tp4714
tp4715
Rp4716
ag0
(g5
g6
(I1
I0
tp4717
tp4718
Rp4719
ag0
(g5
g6
(I1
I0
tp4720
tp4721
Rp4722
ag0
(g5
g6
(I1
I0
tp4723
tp4724
Rp4725
ag0
(g5
g6
(I1
I0
tp4726
tp4727
Rp4728
ag0
(g5
g6
(I1
I0
tp4729
tp4730
Rp4731
ag0
(g5
g6
(I1
I0
tp4732
tp4733
Rp4734
ag0
(g5
g6
(I1
I0
tp4735
tp4736
Rp4737
ag0
(g5
g6
(I1
I0
tp4738
tp4739
Rp4740
ag0
(g5
g6
(I1
I0
tp4741
tp4742
Rp4743
ag0
(g5
g6
(I1
I0
tp4744
tp4745
Rp4746
ag0
(g5
g6
(I1
I0
tp4747
tp4748
Rp4749
ag0
(g5
g6
(I1
I0
tp4750
tp4751
Rp4752
ag0
(g5
g6
(I1
I0
tp4753
tp4754
Rp4755
ag0
(g5
g6
(I1
I0
tp4756
tp4757
Rp4758
ag0
(g5
g6
(I1
I0
tp4759
tp4760
Rp4761
ag0
(g5
g6
(I1
I0
tp4762
tp4763
Rp4764
ag0
(g5
g6
(I1
I0
tp4765
tp4766
Rp4767
ag0
(g5
g6
(I1
I0
tp4768
tp4769
Rp4770
ag0
(g5
g6
(I1
I0
tp4771
tp4772
Rp4773
ag0
(g5
g6
(I1
I0
tp4774
tp4775
Rp4776
ag0
(g5
g6
(I1
I0
tp4777
tp4778
Rp4779
ag0
(g5
g6
(I1
I0
tp4780
tp4781
Rp4782
ag0
(g5
g6
(I1
I0
tp4783
tp4784
Rp4785
ag0
(g5
g6
(I1
I0
tp4786
tp4787
Rp4788
ag0
(g5
g6
(I1
I0
tp4789
tp4790
Rp4791
ag0
(g5
g6
(I1
I-1
tp4792
tp4793
Rp4794
ag0
(g5
g6
(I1
I0
tp4795
tp4796
Rp4797
ag0
(g5
g6
(I1
I-1
tp4798
tp4799
Rp4800
ag0
(g5
g6
(I1
I-1
tp4801
tp4802
Rp4803
ag0
(g5
g6
(I1
I0
tp4804
tp4805
Rp4806
ag0
(g5
g6
(I1
I0
tp4807
tp4808
Rp4809
ag0
(g5
g6
(I1
I0
tp4810
tp4811
Rp4812
ag0
(g5
g6
(I1
I0
tp4813
tp4814
Rp4815
ag0
(g5
g6
(I1
I0
tp4816
tp4817
Rp4818
ag0
(g5
g6
(I1
I0
tp4819
tp4820
Rp4821
ag0
(g5
g6
(I1
I0
tp4822
tp4823
Rp4824
ag0
(g5
g6
(I1
I0
tp4825
tp4826
Rp4827
ag0
(g5
g6
(I1
I0
tp4828
tp4829
Rp4830
aa(lp4831
g0
(g5
g6
(I1
I0
tp4832
tp4833
Rp4834
ag0
(g5
g6
(I1
I0
tp4835
tp4836
Rp4837
ag0
(g5
g6
(I1
I0
tp4838
tp4839
Rp4840
ag0
(g5
g6
(I1
I0
tp4841
tp4842
Rp4843
ag0
(g5
g6
(I1
I0
tp4844
tp4845
Rp4846
ag0
(g5
g6
(I1
I0
tp4847
tp4848
Rp4849
ag0
(g5
g6
(I1
I0
tp4850
tp4851
Rp4852
ag0
(g5
g6
(I1
I0
tp4853
tp4854
Rp4855
ag0
(g5
g6
(I1
I0
tp4856
tp4857
Rp4858
ag0
(g5
g6
(I1
I0
tp4859
tp4860
Rp4861
ag0
(g5
g6
(I1
I0
tp4862
tp4863
Rp4864
ag0
(g5
g6
(I1
I0
tp4865
tp4866
Rp4867
ag0
(g5
g6
(I1
I-1
tp4868
tp4869
Rp4870
ag0
(g5
g6
(I1
I-1
tp4871
tp4872
Rp4873
ag0
(g5
g6
(I1
I-1
tp4874
tp4875
Rp4876
ag0
(g5
g6
(I1
I0
tp4877
tp4878
Rp4879
ag0
(g5
g6
(I1
I0
tp4880
tp4881
Rp4882
ag0
(g5
g6
(I1
I0
tp4883
tp4884
Rp4885
ag0
(g5
g6
(I1
I0
tp4886
tp4887
Rp4888
ag0
(g5
g6
(I1
I0
tp4889
tp4890
Rp4891
ag0
(g5
g6
(I1
I0
tp4892
tp4893
Rp4894
ag0
(g5
g6
(I1
I0
tp4895
tp4896
Rp4897
ag0
(g5
g6
(I1
I0
tp4898
tp4899
Rp4900
ag0
(g5
g6
(I1
I0
tp4901
tp4902
Rp4903
ag0
(g5
g6
(I1
I0
tp4904
tp4905
Rp4906
ag0
(g5
g6
(I1
I0
tp4907
tp4908
Rp4909
ag0
(g5
g6
(I1
I0
tp4910
tp4911
Rp4912
ag0
(g5
g6
(I1
I0
tp4913
tp4914
Rp4915
ag0
(g5
g6
(I1
I0
tp4916
tp4917
Rp4918
ag0
(g5
g6
(I1
I0
tp4919
tp4920
Rp4921
ag0
(g5
g6
(I1
I0
tp4922
tp4923
Rp4924
ag0
(g5
g6
(I1
I0
tp4925
tp4926
Rp4927
ag0
(g5
g6
(I1
I0
tp4928
tp4929
Rp4930
ag0
(g5
g6
(I1
I0
tp4931
tp4932
Rp4933
ag0
(g5
g6
(I1
I0
tp4934
tp4935
Rp4936
ag0
(g5
g6
(I1
I0
tp4937
tp4938
Rp4939
ag0
(g5
g6
(I1
I0
tp4940
tp4941
Rp4942
ag0
(g5
g6
(I1
I0
tp4943
tp4944
Rp4945
ag0
(g5
g6
(I1
I0
tp4946
tp4947
Rp4948
ag0
(g5
g6
(I1
I0
tp4949
tp4950
Rp4951
ag0
(g5
g6
(I1
I0
tp4952
tp4953
Rp4954
ag0
(g5
g6
(I1
I0
tp4955
tp4956
Rp4957
ag0
(g5
g6
(I1
I0
tp4958
tp4959
Rp4960
ag0
(g5
g6
(I1
I0
tp4961
tp4962
Rp4963
ag0
(g5
g6
(I1
I0
tp4964
tp4965
Rp4966
ag0
(g5
g6
(I1
I0
tp4967
tp4968
Rp4969
ag0
(g5
g6
(I1
I0
tp4970
tp4971
Rp4972
ag0
(g5
g6
(I1
I0
tp4973
tp4974
Rp4975
ag0
(g5
g6
(I1
I0
tp4976
tp4977
Rp4978
ag0
(g5
g6
(I1
I0
tp4979
tp4980
Rp4981
ag0
(g5
g6
(I1
I-1
tp4982
tp4983
Rp4984
ag0
(g5
g6
(I1
I-1
tp4985
tp4986
Rp4987
ag0
(g5
g6
(I1
I0
tp4988
tp4989
Rp4990
ag0
(g5
g6
(I1
I-1
tp4991
tp4992
Rp4993
ag0
(g5
g6
(I1
I0
tp4994
tp4995
Rp4996
ag0
(g5
g6
(I1
I0
tp4997
tp4998
Rp4999
ag0
(g5
g6
(I1
I0
tp5000
tp5001
Rp5002
ag0
(g5
g6
(I1
I0
tp5003
tp5004
Rp5005
ag0
(g5
g6
(I1
I0
tp5006
tp5007
Rp5008
ag0
(g5
g6
(I1
I0
tp5009
tp5010
Rp5011
ag0
(g5
g6
(I1
I0
tp5012
tp5013
Rp5014
ag0
(g5
g6
(I1
I0
tp5015
tp5016
Rp5017
ag0
(g5
g6
(I1
I0
tp5018
tp5019
Rp5020
ag0
(g5
g6
(I1
I0
tp5021
tp5022
Rp5023
aa(lp5024
g0
(g5
g6
(I1
I0
tp5025
tp5026
Rp5027
ag0
(g5
g6
(I1
I0
tp5028
tp5029
Rp5030
ag0
(g5
g6
(I1
I0
tp5031
tp5032
Rp5033
ag0
(g5
g6
(I1
I0
tp5034
tp5035
Rp5036
ag0
(g5
g6
(I1
I0
tp5037
tp5038
Rp5039
ag0
(g5
g6
(I1
I0
tp5040
tp5041
Rp5042
ag0
(g5
g6
(I1
I0
tp5043
tp5044
Rp5045
ag0
(g5
g6
(I1
I0
tp5046
tp5047
Rp5048
ag0
(g5
g6
(I1
I0
tp5049
tp5050
Rp5051
ag0
(g5
g6
(I1
I0
tp5052
tp5053
Rp5054
ag0
(g5
g6
(I1
I-1
tp5055
tp5056
Rp5057
ag0
(g5
g6
(I1
I0
tp5058
tp5059
Rp5060
ag0
(g5
g6
(I1
I0
tp5061
tp5062
Rp5063
ag0
(g5
g6
(I1
I-1
tp5064
tp5065
Rp5066
ag0
(g5
g6
(I1
I-1
tp5067
tp5068
Rp5069
ag0
(g5
g6
(I1
I-1
tp5070
tp5071
Rp5072
ag0
(g5
g6
(I1
I0
tp5073
tp5074
Rp5075
ag0
(g5
g6
(I1
I0
tp5076
tp5077
Rp5078
ag0
(g5
g6
(I1
I0
tp5079
tp5080
Rp5081
ag0
(g5
g6
(I1
I0
tp5082
tp5083
Rp5084
ag0
(g5
g6
(I1
I0
tp5085
tp5086
Rp5087
ag0
(g5
g6
(I1
I0
tp5088
tp5089
Rp5090
ag0
(g5
g6
(I1
I0
tp5091
tp5092
Rp5093
ag0
(g5
g6
(I1
I0
tp5094
tp5095
Rp5096
ag0
(g5
g6
(I1
I0
tp5097
tp5098
Rp5099
ag0
(g5
g6
(I1
I0
tp5100
tp5101
Rp5102
ag0
(g5
g6
(I1
I0
tp5103
tp5104
Rp5105
ag0
(g5
g6
(I1
I0
tp5106
tp5107
Rp5108
ag0
(g5
g6
(I1
I0
tp5109
tp5110
Rp5111
ag0
(g5
g6
(I1
I0
tp5112
tp5113
Rp5114
ag0
(g5
g6
(I1
I0
tp5115
tp5116
Rp5117
ag0
(g5
g6
(I1
I0
tp5118
tp5119
Rp5120
ag0
(g5
g6
(I1
I0
tp5121
tp5122
Rp5123
ag0
(g5
g6
(I1
I0
tp5124
tp5125
Rp5126
ag0
(g5
g6
(I1
I0
tp5127
tp5128
Rp5129
ag0
(g5
g6
(I1
I0
tp5130
tp5131
Rp5132
ag0
(g5
g6
(I1
I0
tp5133
tp5134
Rp5135
ag0
(g5
g6
(I1
I0
tp5136
tp5137
Rp5138
ag0
(g5
g6
(I1
I0
tp5139
tp5140
Rp5141
ag0
(g5
g6
(I1
I0
tp5142
tp5143
Rp5144
ag0
(g5
g6
(I1
I0
tp5145
tp5146
Rp5147
ag0
(g5
g6
(I1
I0
tp5148
tp5149
Rp5150
ag0
(g5
g6
(I1
I0
tp5151
tp5152
Rp5153
ag0
(g5
g6
(I1
I0
tp5154
tp5155
Rp5156
ag0
(g5
g6
(I1
I0
tp5157
tp5158
Rp5159
ag0
(g5
g6
(I1
I0
tp5160
tp5161
Rp5162
ag0
(g5
g6
(I1
I0
tp5163
tp5164
Rp5165
ag0
(g5
g6
(I1
I0
tp5166
tp5167
Rp5168
ag0
(g5
g6
(I1
I0
tp5169
tp5170
Rp5171
ag0
(g5
g6
(I1
I0
tp5172
tp5173
Rp5174
ag0
(g5
g6
(I1
I0
tp5175
tp5176
Rp5177
ag0
(g5
g6
(I1
I-1
tp5178
tp5179
Rp5180
ag0
(g5
g6
(I1
I-1
tp5181
tp5182
Rp5183
ag0
(g5
g6
(I1
I-1
tp5184
tp5185
Rp5186
ag0
(g5
g6
(I1
I-1
tp5187
tp5188
Rp5189
ag0
(g5
g6
(I1
I0
tp5190
tp5191
Rp5192
ag0
(g5
g6
(I1
I0
tp5193
tp5194
Rp5195
ag0
(g5
g6
(I1
I0
tp5196
tp5197
Rp5198
ag0
(g5
g6
(I1
I0
tp5199
tp5200
Rp5201
ag0
(g5
g6
(I1
I0
tp5202
tp5203
Rp5204
ag0
(g5
g6
(I1
I0
tp5205
tp5206
Rp5207
ag0
(g5
g6
(I1
I0
tp5208
tp5209
Rp5210
ag0
(g5
g6
(I1
I0
tp5211
tp5212
Rp5213
ag0
(g5
g6
(I1
I0
tp5214
tp5215
Rp5216
aa(lp5217
g0
(g5
g6
(I1
I0
tp5218
tp5219
Rp5220
ag0
(g5
g6
(I1
I0
tp5221
tp5222
Rp5223
ag0
(g5
g6
(I1
I0
tp5224
tp5225
Rp5226
ag0
(g5
g6
(I1
I0
tp5227
tp5228
Rp5229
ag0
(g5
g6
(I1
I0
tp5230
tp5231
Rp5232
ag0
(g5
g6
(I1
I0
tp5233
tp5234
Rp5235
ag0
(g5
g6
(I1
I0
tp5236
tp5237
Rp5238
ag0
(g5
g6
(I1
I0
tp5239
tp5240
Rp5241
ag0
(g5
g6
(I1
I0
tp5242
tp5243
Rp5244
ag0
(g5
g6
(I1
I0
tp5245
tp5246
Rp5247
ag0
(g5
g6
(I1
I0
tp5248
tp5249
Rp5250
ag0
(g5
g6
(I1
I-1
tp5251
tp5252
Rp5253
ag0
(g5
g6
(I1
I-1
tp5254
tp5255
Rp5256
ag0
(g5
g6
(I1
I-1
tp5257
tp5258
Rp5259
ag0
(g5
g6
(I1
I-1
tp5260
tp5261
Rp5262
ag0
(g5
g6
(I1
I-1
tp5263
tp5264
Rp5265
ag0
(g5
g6
(I1
I-1
tp5266
tp5267
Rp5268
ag0
(g5
g6
(I1
I0
tp5269
tp5270
Rp5271
ag0
(g5
g6
(I1
I0
tp5272
tp5273
Rp5274
ag0
(g5
g6
(I1
I0
tp5275
tp5276
Rp5277
ag0
(g5
g6
(I1
I0
tp5278
tp5279
Rp5280
ag0
(g5
g6
(I1
I0
tp5281
tp5282
Rp5283
ag0
(g5
g6
(I1
I0
tp5284
tp5285
Rp5286
ag0
(g5
g6
(I1
I0
tp5287
tp5288
Rp5289
ag0
(g5
g6
(I1
I0
tp5290
tp5291
Rp5292
ag0
(g5
g6
(I1
I0
tp5293
tp5294
Rp5295
ag0
(g5
g6
(I1
I0
tp5296
tp5297
Rp5298
ag0
(g5
g6
(I1
I0
tp5299
tp5300
Rp5301
ag0
(g5
g6
(I1
I0
tp5302
tp5303
Rp5304
ag0
(g5
g6
(I1
I0
tp5305
tp5306
Rp5307
ag0
(g5
g6
(I1
I0
tp5308
tp5309
Rp5310
ag0
(g5
g6
(I1
I0
tp5311
tp5312
Rp5313
ag0
(g5
g6
(I1
I0
tp5314
tp5315
Rp5316
ag0
(g5
g6
(I1
I0
tp5317
tp5318
Rp5319
ag0
(g5
g6
(I1
I0
tp5320
tp5321
Rp5322
ag0
(g5
g6
(I1
I0
tp5323
tp5324
Rp5325
ag0
(g5
g6
(I1
I0
tp5326
tp5327
Rp5328
ag0
(g5
g6
(I1
I0
tp5329
tp5330
Rp5331
ag0
(g5
g6
(I1
I0
tp5332
tp5333
Rp5334
ag0
(g5
g6
(I1
I0
tp5335
tp5336
Rp5337
ag0
(g5
g6
(I1
I0
tp5338
tp5339
Rp5340
ag0
(g5
g6
(I1
I0
tp5341
tp5342
Rp5343
ag0
(g5
g6
(I1
I0
tp5344
tp5345
Rp5346
ag0
(g5
g6
(I1
I0
tp5347
tp5348
Rp5349
ag0
(g5
g6
(I1
I0
tp5350
tp5351
Rp5352
ag0
(g5
g6
(I1
I0
tp5353
tp5354
Rp5355
ag0
(g5
g6
(I1
I0
tp5356
tp5357
Rp5358
ag0
(g5
g6
(I1
I0
tp5359
tp5360
Rp5361
ag0
(g5
g6
(I1
I-1
tp5362
tp5363
Rp5364
ag0
(g5
g6
(I1
I-1
tp5365
tp5366
Rp5367
ag0
(g5
g6
(I1
I-1
tp5368
tp5369
Rp5370
ag0
(g5
g6
(I1
I-1
tp5371
tp5372
Rp5373
ag0
(g5
g6
(I1
I-1
tp5374
tp5375
Rp5376
ag0
(g5
g6
(I1
I0
tp5377
tp5378
Rp5379
ag0
(g5
g6
(I1
I-1
tp5380
tp5381
Rp5382
ag0
(g5
g6
(I1
I0
tp5383
tp5384
Rp5385
ag0
(g5
g6
(I1
I0
tp5386
tp5387
Rp5388
ag0
(g5
g6
(I1
I0
tp5389
tp5390
Rp5391
ag0
(g5
g6
(I1
I0
tp5392
tp5393
Rp5394
ag0
(g5
g6
(I1
I0
tp5395
tp5396
Rp5397
ag0
(g5
g6
(I1
I0
tp5398
tp5399
Rp5400
ag0
(g5
g6
(I1
I0
tp5401
tp5402
Rp5403
ag0
(g5
g6
(I1
I0
tp5404
tp5405
Rp5406
ag0
(g5
g6
(I1
I0
tp5407
tp5408
Rp5409
aa(lp5410
g0
(g5
g6
(I1
I0
tp5411
tp5412
Rp5413
ag0
(g5
g6
(I1
I0
tp5414
tp5415
Rp5416
ag0
(g5
g6
(I1
I0
tp5417
tp5418
Rp5419
ag0
(g5
g6
(I1
I0
tp5420
tp5421
Rp5422
ag0
(g5
g6
(I1
I0
tp5423
tp5424
Rp5425
ag0
(g5
g6
(I1
I0
tp5426
tp5427
Rp5428
ag0
(g5
g6
(I1
I0
tp5429
tp5430
Rp5431
ag0
(g5
g6
(I1
I0
tp5432
tp5433
Rp5434
ag0
(g5
g6
(I1
I0
tp5435
tp5436
Rp5437
ag0
(g5
g6
(I1
I0
tp5438
tp5439
Rp5440
ag0
(g5
g6
(I1
I-1
tp5441
tp5442
Rp5443
ag0
(g5
g6
(I1
I0
tp5444
tp5445
Rp5446
ag0
(g5
g6
(I1
I-1
tp5447
tp5448
Rp5449
ag0
(g5
g6
(I1
I0
tp5450
tp5451
Rp5452
ag0
(g5
g6
(I1
I-1
tp5453
tp5454
Rp5455
ag0
(g5
g6
(I1
I0
tp5456
tp5457
Rp5458
ag0
(g5
g6
(I1
I-1
tp5459
tp5460
Rp5461
ag0
(g5
g6
(I1
I-1
tp5462
tp5463
Rp5464
ag0
(g5
g6
(I1
I0
tp5465
tp5466
Rp5467
ag0
(g5
g6
(I1
I0
tp5468
tp5469
Rp5470
ag0
(g5
g6
(I1
I0
tp5471
tp5472
Rp5473
ag0
(g5
g6
(I1
I0
tp5474
tp5475
Rp5476
ag0
(g5
g6
(I1
I0
tp5477
tp5478
Rp5479
ag0
(g5
g6
(I1
I0
tp5480
tp5481
Rp5482
ag0
(g5
g6
(I1
I0
tp5483
tp5484
Rp5485
ag0
(g5
g6
(I1
I0
tp5486
tp5487
Rp5488
ag0
(g5
g6
(I1
I0
tp5489
tp5490
Rp5491
ag0
(g5
g6
(I1
I0
tp5492
tp5493
Rp5494
ag0
(g5
g6
(I1
I0
tp5495
tp5496
Rp5497
ag0
(g5
g6
(I1
I0
tp5498
tp5499
Rp5500
ag0
(g5
g6
(I1
I0
tp5501
tp5502
Rp5503
ag0
(g5
g6
(I1
I0
tp5504
tp5505
Rp5506
ag0
(g5
g6
(I1
I0
tp5507
tp5508
Rp5509
ag0
(g5
g6
(I1
I0
tp5510
tp5511
Rp5512
ag0
(g5
g6
(I1
I0
tp5513
tp5514
Rp5515
ag0
(g5
g6
(I1
I0
tp5516
tp5517
Rp5518
ag0
(g5
g6
(I1
I0
tp5519
tp5520
Rp5521
ag0
(g5
g6
(I1
I0
tp5522
tp5523
Rp5524
ag0
(g5
g6
(I1
I0
tp5525
tp5526
Rp5527
ag0
(g5
g6
(I1
I0
tp5528
tp5529
Rp5530
ag0
(g5
g6
(I1
I0
tp5531
tp5532
Rp5533
ag0
(g5
g6
(I1
I0
tp5534
tp5535
Rp5536
ag0
(g5
g6
(I1
I0
tp5537
tp5538
Rp5539
ag0
(g5
g6
(I1
I0
tp5540
tp5541
Rp5542
ag0
(g5
g6
(I1
I0
tp5543
tp5544
Rp5545
ag0
(g5
g6
(I1
I0
tp5546
tp5547
Rp5548
ag0
(g5
g6
(I1
I0
tp5549
tp5550
Rp5551
ag0
(g5
g6
(I1
I0
tp5552
tp5553
Rp5554
ag0
(g5
g6
(I1
I0
tp5555
tp5556
Rp5557
ag0
(g5
g6
(I1
I-1
tp5558
tp5559
Rp5560
ag0
(g5
g6
(I1
I0
tp5561
tp5562
Rp5563
ag0
(g5
g6
(I1
I0
tp5564
tp5565
Rp5566
ag0
(g5
g6
(I1
I0
tp5567
tp5568
Rp5569
ag0
(g5
g6
(I1
I-1
tp5570
tp5571
Rp5572
ag0
(g5
g6
(I1
I0
tp5573
tp5574
Rp5575
ag0
(g5
g6
(I1
I0
tp5576
tp5577
Rp5578
ag0
(g5
g6
(I1
I0
tp5579
tp5580
Rp5581
ag0
(g5
g6
(I1
I0
tp5582
tp5583
Rp5584
ag0
(g5
g6
(I1
I0
tp5585
tp5586
Rp5587
ag0
(g5
g6
(I1
I0
tp5588
tp5589
Rp5590
ag0
(g5
g6
(I1
I0
tp5591
tp5592
Rp5593
ag0
(g5
g6
(I1
I0
tp5594
tp5595
Rp5596
ag0
(g5
g6
(I1
I0
tp5597
tp5598
Rp5599
ag0
(g5
g6
(I1
I0
tp5600
tp5601
Rp5602
aa(lp5603
g0
(g5
g6
(I1
I0
tp5604
tp5605
Rp5606
ag0
(g5
g6
(I1
I0
tp5607
tp5608
Rp5609
ag0
(g5
g6
(I1
I0
tp5610
tp5611
Rp5612
ag0
(g5
g6
(I1
I0
tp5613
tp5614
Rp5615
ag0
(g5
g6
(I1
I0
tp5616
tp5617
Rp5618
ag0
(g5
g6
(I1
I0
tp5619
tp5620
Rp5621
ag0
(g5
g6
(I1
I0
tp5622
tp5623
Rp5624
ag0
(g5
g6
(I1
I0
tp5625
tp5626
Rp5627
ag0
(g5
g6
(I1
I0
tp5628
tp5629
Rp5630
ag0
(g5
g6
(I1
I0
tp5631
tp5632
Rp5633
ag0
(g5
g6
(I1
I-1
tp5634
tp5635
Rp5636
ag0
(g5
g6
(I1
I0
tp5637
tp5638
Rp5639
ag0
(g5
g6
(I1
I-1
tp5640
tp5641
Rp5642
ag0
(g5
g6
(I1
I-1
tp5643
tp5644
Rp5645
ag0
(g5
g6
(I1
I-1
tp5646
tp5647
Rp5648
ag0
(g5
g6
(I1
I0
tp5649
tp5650
Rp5651
ag0
(g5
g6
(I1
I0
tp5652
tp5653
Rp5654
ag0
(g5
g6
(I1
I-1
tp5655
tp5656
Rp5657
ag0
(g5
g6
(I1
I-1
tp5658
tp5659
Rp5660
ag0
(g5
g6
(I1
I0
tp5661
tp5662
Rp5663
ag0
(g5
g6
(I1
I0
tp5664
tp5665
Rp5666
ag0
(g5
g6
(I1
I0
tp5667
tp5668
Rp5669
ag0
(g5
g6
(I1
I0
tp5670
tp5671
Rp5672
ag0
(g5
g6
(I1
I0
tp5673
tp5674
Rp5675
ag0
(g5
g6
(I1
I0
tp5676
tp5677
Rp5678
ag0
(g5
g6
(I1
I0
tp5679
tp5680
Rp5681
ag0
(g5
g6
(I1
I0
tp5682
tp5683
Rp5684
ag0
(g5
g6
(I1
I0
tp5685
tp5686
Rp5687
ag0
(g5
g6
(I1
I0
tp5688
tp5689
Rp5690
ag0
(g5
g6
(I1
I0
tp5691
tp5692
Rp5693
ag0
(g5
g6
(I1
I0
tp5694
tp5695
Rp5696
ag0
(g5
g6
(I1
I0
tp5697
tp5698
Rp5699
ag0
(g5
g6
(I1
I0
tp5700
tp5701
Rp5702
ag0
(g5
g6
(I1
I0
tp5703
tp5704
Rp5705
ag0
(g5
g6
(I1
I0
tp5706
tp5707
Rp5708
ag0
(g5
g6
(I1
I0
tp5709
tp5710
Rp5711
ag0
(g5
g6
(I1
I0
tp5712
tp5713
Rp5714
ag0
(g5
g6
(I1
I0
tp5715
tp5716
Rp5717
ag0
(g5
g6
(I1
I0
tp5718
tp5719
Rp5720
ag0
(g5
g6
(I1
I0
tp5721
tp5722
Rp5723
ag0
(g5
g6
(I1
I0
tp5724
tp5725
Rp5726
ag0
(g5
g6
(I1
I0
tp5727
tp5728
Rp5729
ag0
(g5
g6
(I1
I0
tp5730
tp5731
Rp5732
ag0
(g5
g6
(I1
I0
tp5733
tp5734
Rp5735
ag0
(g5
g6
(I1
I0
tp5736
tp5737
Rp5738
ag0
(g5
g6
(I1
I0
tp5739
tp5740
Rp5741
ag0
(g5
g6
(I1
I-1
tp5742
tp5743
Rp5744
ag0
(g5
g6
(I1
I0
tp5745
tp5746
Rp5747
ag0
(g5
g6
(I1
I-1
tp5748
tp5749
Rp5750
ag0
(g5
g6
(I1
I-1
tp5751
tp5752
Rp5753
ag0
(g5
g6
(I1
I-1
tp5754
tp5755
Rp5756
ag0
(g5
g6
(I1
I0
tp5757
tp5758
Rp5759
ag0
(g5
g6
(I1
I-1
tp5760
tp5761
Rp5762
ag0
(g5
g6
(I1
I-1
tp5763
tp5764
Rp5765
ag0
(g5
g6
(I1
I-1
tp5766
tp5767
Rp5768
ag0
(g5
g6
(I1
I0
tp5769
tp5770
Rp5771
ag0
(g5
g6
(I1
I0
tp5772
tp5773
Rp5774
ag0
(g5
g6
(I1
I0
tp5775
tp5776
Rp5777
ag0
(g5
g6
(I1
I0
tp5778
tp5779
Rp5780
ag0
(g5
g6
(I1
I0
tp5781
tp5782
Rp5783
ag0
(g5
g6
(I1
I0
tp5784
tp5785
Rp5786
ag0
(g5
g6
(I1
I0
tp5787
tp5788
Rp5789
ag0
(g5
g6
(I1
I0
tp5790
tp5791
Rp5792
ag0
(g5
g6
(I1
I0
tp5793
tp5794
Rp5795
aa(lp5796
g0
(g5
g6
(I1
I0
tp5797
tp5798
Rp5799
ag0
(g5
g6
(I1
I0
tp5800
tp5801
Rp5802
ag0
(g5
g6
(I1
I0
tp5803
tp5804
Rp5805
ag0
(g5
g6
(I1
I0
tp5806
tp5807
Rp5808
ag0
(g5
g6
(I1
I0
tp5809
tp5810
Rp5811
ag0
(g5
g6
(I1
I0
tp5812
tp5813
Rp5814
ag0
(g5
g6
(I1
I0
tp5815
tp5816
Rp5817
ag0
(g5
g6
(I1
I0
tp5818
tp5819
Rp5820
ag0
(g5
g6
(I1
I0
tp5821
tp5822
Rp5823
ag0
(g5
g6
(I1
I0
tp5824
tp5825
Rp5826
ag0
(g5
g6
(I1
I0
tp5827
tp5828
Rp5829
ag0
(g5
g6
(I1
I-1
tp5830
tp5831
Rp5832
ag0
(g5
g6
(I1
I-1
tp5833
tp5834
Rp5835
ag0
(g5
g6
(I1
I-1
tp5836
tp5837
Rp5838
ag0
(g5
g6
(I1
I-1
tp5839
tp5840
Rp5841
ag0
(g5
g6
(I1
I-1
tp5842
tp5843
Rp5844
ag0
(g5
g6
(I1
I0
tp5845
tp5846
Rp5847
ag0
(g5
g6
(I1
I0
tp5848
tp5849
Rp5850
ag0
(g5
g6
(I1
I-1
tp5851
tp5852
Rp5853
ag0
(g5
g6
(I1
I0
tp5854
tp5855
Rp5856
ag0
(g5
g6
(I1
I0
tp5857
tp5858
Rp5859
ag0
(g5
g6
(I1
I0
tp5860
tp5861
Rp5862
ag0
(g5
g6
(I1
I0
tp5863
tp5864
Rp5865
ag0
(g5
g6
(I1
I0
tp5866
tp5867
Rp5868
ag0
(g5
g6
(I1
I0
tp5869
tp5870
Rp5871
ag0
(g5
g6
(I1
I0
tp5872
tp5873
Rp5874
ag0
(g5
g6
(I1
I0
tp5875
tp5876
Rp5877
ag0
(g5
g6
(I1
I0
tp5878
tp5879
Rp5880
ag0
(g5
g6
(I1
I0
tp5881
tp5882
Rp5883
ag0
(g5
g6
(I1
I0
tp5884
tp5885
Rp5886
ag0
(g5
g6
(I1
I0
tp5887
tp5888
Rp5889
ag0
(g5
g6
(I1
I0
tp5890
tp5891
Rp5892
ag0
(g5
g6
(I1
I0
tp5893
tp5894
Rp5895
ag0
(g5
g6
(I1
I0
tp5896
tp5897
Rp5898
ag0
(g5
g6
(I1
I0
tp5899
tp5900
Rp5901
ag0
(g5
g6
(I1
I0
tp5902
tp5903
Rp5904
ag0
(g5
g6
(I1
I0
tp5905
tp5906
Rp5907
ag0
(g5
g6
(I1
I0
tp5908
tp5909
Rp5910
ag0
(g5
g6
(I1
I0
tp5911
tp5912
Rp5913
ag0
(g5
g6
(I1
I0
tp5914
tp5915
Rp5916
ag0
(g5
g6
(I1
I0
tp5917
tp5918
Rp5919
ag0
(g5
g6
(I1
I0
tp5920
tp5921
Rp5922
ag0
(g5
g6
(I1
I0
tp5923
tp5924
Rp5925
ag0
(g5
g6
(I1
I0
tp5926
tp5927
Rp5928
ag0
(g5
g6
(I1
I0
tp5929
tp5930
Rp5931
ag0
(g5
g6
(I1
I0
tp5932
tp5933
Rp5934
ag0
(g5
g6
(I1
I-1
tp5935
tp5936
Rp5937
ag0
(g5
g6
(I1
I0
tp5938
tp5939
Rp5940
ag0
(g5
g6
(I1
I-1
tp5941
tp5942
Rp5943
ag0
(g5
g6
(I1
I0
tp5944
tp5945
Rp5946
ag0
(g5
g6
(I1
I-1
tp5947
tp5948
Rp5949
ag0
(g5
g6
(I1
I-1
tp5950
tp5951
Rp5952
ag0
(g5
g6
(I1
I0
tp5953
tp5954
Rp5955
ag0
(g5
g6
(I1
I-1
tp5956
tp5957
Rp5958
ag0
(g5
g6
(I1
I-1
tp5959
tp5960
Rp5961
ag0
(g5
g6
(I1
I0
tp5962
tp5963
Rp5964
ag0
(g5
g6
(I1
I0
tp5965
tp5966
Rp5967
ag0
(g5
g6
(I1
I0
tp5968
tp5969
Rp5970
ag0
(g5
g6
(I1
I0
tp5971
tp5972
Rp5973
ag0
(g5
g6
(I1
I0
tp5974
tp5975
Rp5976
ag0
(g5
g6
(I1
I0
tp5977
tp5978
Rp5979
ag0
(g5
g6
(I1
I0
tp5980
tp5981
Rp5982
ag0
(g5
g6
(I1
I0
tp5983
tp5984
Rp5985
ag0
(g5
g6
(I1
I0
tp5986
tp5987
Rp5988
aa(lp5989
g0
(g5
g6
(I1
I0
tp5990
tp5991
Rp5992
ag0
(g5
g6
(I1
I0
tp5993
tp5994
Rp5995
ag0
(g5
g6
(I1
I0
tp5996
tp5997
Rp5998
ag0
(g5
g6
(I1
I0
tp5999
tp6000
Rp6001
ag0
(g5
g6
(I1
I0
tp6002
tp6003
Rp6004
ag0
(g5
g6
(I1
I0
tp6005
tp6006
Rp6007
ag0
(g5
g6
(I1
I0
tp6008
tp6009
Rp6010
ag0
(g5
g6
(I1
I0
tp6011
tp6012
Rp6013
ag0
(g5
g6
(I1
I0
tp6014
tp6015
Rp6016
ag0
(g5
g6
(I1
I0
tp6017
tp6018
Rp6019
ag0
(g5
g6
(I1
I0
tp6020
tp6021
Rp6022
ag0
(g5
g6
(I1
I0
tp6023
tp6024
Rp6025
ag0
(g5
g6
(I1
I-1
tp6026
tp6027
Rp6028
ag0
(g5
g6
(I1
I-1
tp6029
tp6030
Rp6031
ag0
(g5
g6
(I1
I-1
tp6032
tp6033
Rp6034
ag0
(g5
g6
(I1
I0
tp6035
tp6036
Rp6037
ag0
(g5
g6
(I1
I-1
tp6038
tp6039
Rp6040
ag0
(g5
g6
(I1
I-1
tp6041
tp6042
Rp6043
ag0
(g5
g6
(I1
I-1
tp6044
tp6045
Rp6046
ag0
(g5
g6
(I1
I0
tp6047
tp6048
Rp6049
ag0
(g5
g6
(I1
I-1
tp6050
tp6051
Rp6052
ag0
(g5
g6
(I1
I0
tp6053
tp6054
Rp6055
ag0
(g5
g6
(I1
I0
tp6056
tp6057
Rp6058
ag0
(g5
g6
(I1
I0
tp6059
tp6060
Rp6061
ag0
(g5
g6
(I1
I0
tp6062
tp6063
Rp6064
ag0
(g5
g6
(I1
I0
tp6065
tp6066
Rp6067
ag0
(g5
g6
(I1
I0
tp6068
tp6069
Rp6070
ag0
(g5
g6
(I1
I0
tp6071
tp6072
Rp6073
ag0
(g5
g6
(I1
I0
tp6074
tp6075
Rp6076
ag0
(g5
g6
(I1
I0
tp6077
tp6078
Rp6079
ag0
(g5
g6
(I1
I0
tp6080
tp6081
Rp6082
ag0
(g5
g6
(I1
I0
tp6083
tp6084
Rp6085
ag0
(g5
g6
(I1
I0
tp6086
tp6087
Rp6088
ag0
(g5
g6
(I1
I0
tp6089
tp6090
Rp6091
ag0
(g5
g6
(I1
I0
tp6092
tp6093
Rp6094
ag0
(g5
g6
(I1
I0
tp6095
tp6096
Rp6097
ag0
(g5
g6
(I1
I0
tp6098
tp6099
Rp6100
ag0
(g5
g6
(I1
I0
tp6101
tp6102
Rp6103
ag0
(g5
g6
(I1
I0
tp6104
tp6105
Rp6106
ag0
(g5
g6
(I1
I0
tp6107
tp6108
Rp6109
ag0
(g5
g6
(I1
I0
tp6110
tp6111
Rp6112
ag0
(g5
g6
(I1
I0
tp6113
tp6114
Rp6115
ag0
(g5
g6
(I1
I0
tp6116
tp6117
Rp6118
ag0
(g5
g6
(I1
I0
tp6119
tp6120
Rp6121
ag0
(g5
g6
(I1
I-1
tp6122
tp6123
Rp6124
ag0
(g5
g6
(I1
I-1
tp6125
tp6126
Rp6127
ag0
(g5
g6
(I1
I-1
tp6128
tp6129
Rp6130
ag0
(g5
g6
(I1
I0
tp6131
tp6132
Rp6133
ag0
(g5
g6
(I1
I0
tp6134
tp6135
Rp6136
ag0
(g5
g6
(I1
I-1
tp6137
tp6138
Rp6139
ag0
(g5
g6
(I1
I-1
tp6140
tp6141
Rp6142
ag0
(g5
g6
(I1
I-1
tp6143
tp6144
Rp6145
ag0
(g5
g6
(I1
I-1
tp6146
tp6147
Rp6148
ag0
(g5
g6
(I1
I-1
tp6149
tp6150
Rp6151
ag0
(g5
g6
(I1
I0
tp6152
tp6153
Rp6154
ag0
(g5
g6
(I1
I0
tp6155
tp6156
Rp6157
ag0
(g5
g6
(I1
I0
tp6158
tp6159
Rp6160
ag0
(g5
g6
(I1
I0
tp6161
tp6162
Rp6163
ag0
(g5
g6
(I1
I0
tp6164
tp6165
Rp6166
ag0
(g5
g6
(I1
I0
tp6167
tp6168
Rp6169
ag0
(g5
g6
(I1
I0
tp6170
tp6171
Rp6172
ag0
(g5
g6
(I1
I0
tp6173
tp6174
Rp6175
ag0
(g5
g6
(I1
I0
tp6176
tp6177
Rp6178
ag0
(g5
g6
(I1
I0
tp6179
tp6180
Rp6181
aa(lp6182
g0
(g5
g6
(I1
I0
tp6183
tp6184
Rp6185
ag0
(g5
g6
(I1
I0
tp6186
tp6187
Rp6188
ag0
(g5
g6
(I1
I0
tp6189
tp6190
Rp6191
ag0
(g5
g6
(I1
I0
tp6192
tp6193
Rp6194
ag0
(g5
g6
(I1
I0
tp6195
tp6196
Rp6197
ag0
(g5
g6
(I1
I0
tp6198
tp6199
Rp6200
ag0
(g5
g6
(I1
I0
tp6201
tp6202
Rp6203
ag0
(g5
g6
(I1
I0
tp6204
tp6205
Rp6206
ag0
(g5
g6
(I1
I0
tp6207
tp6208
Rp6209
ag0
(g5
g6
(I1
I0
tp6210
tp6211
Rp6212
ag0
(g5
g6
(I1
I-1
tp6213
tp6214
Rp6215
ag0
(g5
g6
(I1
I-1
tp6216
tp6217
Rp6218
ag0
(g5
g6
(I1
I-1
tp6219
tp6220
Rp6221
ag0
(g5
g6
(I1
I-1
tp6222
tp6223
Rp6224
ag0
(g5
g6
(I1
I-1
tp6225
tp6226
Rp6227
ag0
(g5
g6
(I1
I-1
tp6228
tp6229
Rp6230
ag0
(g5
g6
(I1
I-1
tp6231
tp6232
Rp6233
ag0
(g5
g6
(I1
I-1
tp6234
tp6235
Rp6236
ag0
(g5
g6
(I1
I-1
tp6237
tp6238
Rp6239
ag0
(g5
g6
(I1
I-1
tp6240
tp6241
Rp6242
ag0
(g5
g6
(I1
I-1
tp6243
tp6244
Rp6245
ag0
(g5
g6
(I1
I0
tp6246
tp6247
Rp6248
ag0
(g5
g6
(I1
I0
tp6249
tp6250
Rp6251
ag0
(g5
g6
(I1
I0
tp6252
tp6253
Rp6254
ag0
(g5
g6
(I1
I0
tp6255
tp6256
Rp6257
ag0
(g5
g6
(I1
I0
tp6258
tp6259
Rp6260
ag0
(g5
g6
(I1
I0
tp6261
tp6262
Rp6263
ag0
(g5
g6
(I1
I0
tp6264
tp6265
Rp6266
ag0
(g5
g6
(I1
I0
tp6267
tp6268
Rp6269
ag0
(g5
g6
(I1
I0
tp6270
tp6271
Rp6272
ag0
(g5
g6
(I1
I0
tp6273
tp6274
Rp6275
ag0
(g5
g6
(I1
I0
tp6276
tp6277
Rp6278
ag0
(g5
g6
(I1
I0
tp6279
tp6280
Rp6281
ag0
(g5
g6
(I1
I0
tp6282
tp6283
Rp6284
ag0
(g5
g6
(I1
I0
tp6285
tp6286
Rp6287
ag0
(g5
g6
(I1
I0
tp6288
tp6289
Rp6290
ag0
(g5
g6
(I1
I0
tp6291
tp6292
Rp6293
ag0
(g5
g6
(I1
I0
tp6294
tp6295
Rp6296
ag0
(g5
g6
(I1
I0
tp6297
tp6298
Rp6299
ag0
(g5
g6
(I1
I0
tp6300
tp6301
Rp6302
ag0
(g5
g6
(I1
I0
tp6303
tp6304
Rp6305
ag0
(g5
g6
(I1
I0
tp6306
tp6307
Rp6308
ag0
(g5
g6
(I1
I0
tp6309
tp6310
Rp6311
ag0
(g5
g6
(I1
I0
tp6312
tp6313
Rp6314
ag0
(g5
g6
(I1
I-1
tp6315
tp6316
Rp6317
ag0
(g5
g6
(I1
I0
tp6318
tp6319
Rp6320
ag0
(g5
g6
(I1
I-1
tp6321
tp6322
Rp6323
ag0
(g5
g6
(I1
I-1
tp6324
tp6325
Rp6326
ag0
(g5
g6
(I1
I-1
tp6327
tp6328
Rp6329
ag0
(g5
g6
(I1
I-1
tp6330
tp6331
Rp6332
ag0
(g5
g6
(I1
I-1
tp6333
tp6334
Rp6335
ag0
(g5
g6
(I1
I-1
tp6336
tp6337
Rp6338
ag0
(g5
g6
(I1
I-1
tp6339
tp6340
Rp6341
ag0
(g5
g6
(I1
I-1
tp6342
tp6343
Rp6344
ag0
(g5
g6
(I1
I-1
tp6345
tp6346
Rp6347
ag0
(g5
g6
(I1
I0
tp6348
tp6349
Rp6350
ag0
(g5
g6
(I1
I0
tp6351
tp6352
Rp6353
ag0
(g5
g6
(I1
I0
tp6354
tp6355
Rp6356
ag0
(g5
g6
(I1
I0
tp6357
tp6358
Rp6359
ag0
(g5
g6
(I1
I0
tp6360
tp6361
Rp6362
ag0
(g5
g6
(I1
I0
tp6363
tp6364
Rp6365
ag0
(g5
g6
(I1
I0
tp6366
tp6367
Rp6368
ag0
(g5
g6
(I1
I0
tp6369
tp6370
Rp6371
ag0
(g5
g6
(I1
I0
tp6372
tp6373
Rp6374
aa(lp6375
g0
(g5
g6
(I1
I0
tp6376
tp6377
Rp6378
ag0
(g5
g6
(I1
I0
tp6379
tp6380
Rp6381
ag0
(g5
g6
(I1
I0
tp6382
tp6383
Rp6384
ag0
(g5
g6
(I1
I0
tp6385
tp6386
Rp6387
ag0
(g5
g6
(I1
I0
tp6388
tp6389
Rp6390
ag0
(g5
g6
(I1
I0
tp6391
tp6392
Rp6393
ag0
(g5
g6
(I1
I0
tp6394
tp6395
Rp6396
ag0
(g5
g6
(I1
I0
tp6397
tp6398
Rp6399
ag0
(g5
g6
(I1
I0
tp6400
tp6401
Rp6402
ag0
(g5
g6
(I1
I0
tp6403
tp6404
Rp6405
ag0
(g5
g6
(I1
I-1
tp6406
tp6407
Rp6408
ag0
(g5
g6
(I1
I0
tp6409
tp6410
Rp6411
ag0
(g5
g6
(I1
I-1
tp6412
tp6413
Rp6414
ag0
(g5
g6
(I1
I-1
tp6415
tp6416
Rp6417
ag0
(g5
g6
(I1
I-1
tp6418
tp6419
Rp6420
ag0
(g5
g6
(I1
I-1
tp6421
tp6422
Rp6423
ag0
(g5
g6
(I1
I0
tp6424
tp6425
Rp6426
ag0
(g5
g6
(I1
I0
tp6427
tp6428
Rp6429
ag0
(g5
g6
(I1
I-1
tp6430
tp6431
Rp6432
ag0
(g5
g6
(I1
I-1
tp6433
tp6434
Rp6435
ag0
(g5
g6
(I1
I-1
tp6436
tp6437
Rp6438
ag0
(g5
g6
(I1
I-1
tp6439
tp6440
Rp6441
ag0
(g5
g6
(I1
I0
tp6442
tp6443
Rp6444
ag0
(g5
g6
(I1
I0
tp6445
tp6446
Rp6447
ag0
(g5
g6
(I1
I0
tp6448
tp6449
Rp6450
ag0
(g5
g6
(I1
I0
tp6451
tp6452
Rp6453
ag0
(g5
g6
(I1
I0
tp6454
tp6455
Rp6456
ag0
(g5
g6
(I1
I0
tp6457
tp6458
Rp6459
ag0
(g5
g6
(I1
I0
tp6460
tp6461
Rp6462
ag0
(g5
g6
(I1
I0
tp6463
tp6464
Rp6465
ag0
(g5
g6
(I1
I0
tp6466
tp6467
Rp6468
ag0
(g5
g6
(I1
I0
tp6469
tp6470
Rp6471
ag0
(g5
g6
(I1
I0
tp6472
tp6473
Rp6474
ag0
(g5
g6
(I1
I0
tp6475
tp6476
Rp6477
ag0
(g5
g6
(I1
I0
tp6478
tp6479
Rp6480
ag0
(g5
g6
(I1
I0
tp6481
tp6482
Rp6483
ag0
(g5
g6
(I1
I0
tp6484
tp6485
Rp6486
ag0
(g5
g6
(I1
I0
tp6487
tp6488
Rp6489
ag0
(g5
g6
(I1
I0
tp6490
tp6491
Rp6492
ag0
(g5
g6
(I1
I0
tp6493
tp6494
Rp6495
ag0
(g5
g6
(I1
I0
tp6496
tp6497
Rp6498
ag0
(g5
g6
(I1
I0
tp6499
tp6500
Rp6501
ag0
(g5
g6
(I1
I0
tp6502
tp6503
Rp6504
ag0
(g5
g6
(I1
I-1
tp6505
tp6506
Rp6507
ag0
(g5
g6
(I1
I-1
tp6508
tp6509
Rp6510
ag0
(g5
g6
(I1
I-1
tp6511
tp6512
Rp6513
ag0
(g5
g6
(I1
I-1
tp6514
tp6515
Rp6516
ag0
(g5
g6
(I1
I-1
tp6517
tp6518
Rp6519
ag0
(g5
g6
(I1
I0
tp6520
tp6521
Rp6522
ag0
(g5
g6
(I1
I-1
tp6523
tp6524
Rp6525
ag0
(g5
g6
(I1
I0
tp6526
tp6527
Rp6528
ag0
(g5
g6
(I1
I0
tp6529
tp6530
Rp6531
ag0
(g5
g6
(I1
I-1
tp6532
tp6533
Rp6534
ag0
(g5
g6
(I1
I-1
tp6535
tp6536
Rp6537
ag0
(g5
g6
(I1
I-1
tp6538
tp6539
Rp6540
ag0
(g5
g6
(I1
I0
tp6541
tp6542
Rp6543
ag0
(g5
g6
(I1
I0
tp6544
tp6545
Rp6546
ag0
(g5
g6
(I1
I0
tp6547
tp6548
Rp6549
ag0
(g5
g6
(I1
I0
tp6550
tp6551
Rp6552
ag0
(g5
g6
(I1
I0
tp6553
tp6554
Rp6555
ag0
(g5
g6
(I1
I0
tp6556
tp6557
Rp6558
ag0
(g5
g6
(I1
I0
tp6559
tp6560
Rp6561
ag0
(g5
g6
(I1
I0
tp6562
tp6563
Rp6564
ag0
(g5
g6
(I1
I0
tp6565
tp6566
Rp6567
aa(lp6568
g0
(g5
g6
(I1
I0
tp6569
tp6570
Rp6571
ag0
(g5
g6
(I1
I0
tp6572
tp6573
Rp6574
ag0
(g5
g6
(I1
I0
tp6575
tp6576
Rp6577
ag0
(g5
g6
(I1
I0
tp6578
tp6579
Rp6580
ag0
(g5
g6
(I1
I0
tp6581
tp6582
Rp6583
ag0
(g5
g6
(I1
I0
tp6584
tp6585
Rp6586
ag0
(g5
g6
(I1
I0
tp6587
tp6588
Rp6589
ag0
(g5
g6
(I1
I0
tp6590
tp6591
Rp6592
ag0
(g5
g6
(I1
I0
tp6593
tp6594
Rp6595
ag0
(g5
g6
(I1
I0
tp6596
tp6597
Rp6598
ag0
(g5
g6
(I1
I-1
tp6599
tp6600
Rp6601
ag0
(g5
g6
(I1
I0
tp6602
tp6603
Rp6604
ag0
(g5
g6
(I1
I0
tp6605
tp6606
Rp6607
ag0
(g5
g6
(I1
I-1
tp6608
tp6609
Rp6610
ag0
(g5
g6
(I1
I-1
tp6611
tp6612
Rp6613
ag0
(g5
g6
(I1
I-1
tp6614
tp6615
Rp6616
ag0
(g5
g6
(I1
I0
tp6617
tp6618
Rp6619
ag0
(g5
g6
(I1
I0
tp6620
tp6621
Rp6622
ag0
(g5
g6
(I1
I-1
tp6623
tp6624
Rp6625
ag0
(g5
g6
(I1
I-1
tp6626
tp6627
Rp6628
ag0
(g5
g6
(I1
I0
tp6629
tp6630
Rp6631
ag0
(g5
g6
(I1
I0
tp6632
tp6633
Rp6634
ag0
(g5
g6
(I1
I0
tp6635
tp6636
Rp6637
ag0
(g5
g6
(I1
I0
tp6638
tp6639
Rp6640
ag0
(g5
g6
(I1
I0
tp6641
tp6642
Rp6643
ag0
(g5
g6
(I1
I0
tp6644
tp6645
Rp6646
ag0
(g5
g6
(I1
I0
tp6647
tp6648
Rp6649
ag0
(g5
g6
(I1
I0
tp6650
tp6651
Rp6652
ag0
(g5
g6
(I1
I0
tp6653
tp6654
Rp6655
ag0
(g5
g6
(I1
I0
tp6656
tp6657
Rp6658
ag0
(g5
g6
(I1
I0
tp6659
tp6660
Rp6661
ag0
(g5
g6
(I1
I0
tp6662
tp6663
Rp6664
ag0
(g5
g6
(I1
I0
tp6665
tp6666
Rp6667
ag0
(g5
g6
(I1
I0
tp6668
tp6669
Rp6670
ag0
(g5
g6
(I1
I0
tp6671
tp6672
Rp6673
ag0
(g5
g6
(I1
I0
tp6674
tp6675
Rp6676
ag0
(g5
g6
(I1
I0
tp6677
tp6678
Rp6679
ag0
(g5
g6
(I1
I0
tp6680
tp6681
Rp6682
ag0
(g5
g6
(I1
I0
tp6683
tp6684
Rp6685
ag0
(g5
g6
(I1
I0
tp6686
tp6687
Rp6688
ag0
(g5
g6
(I1
I0
tp6689
tp6690
Rp6691
ag0
(g5
g6
(I1
I0
tp6692
tp6693
Rp6694
ag0
(g5
g6
(I1
I0
tp6695
tp6696
Rp6697
ag0
(g5
g6
(I1
I0
tp6698
tp6699
Rp6700
ag0
(g5
g6
(I1
I-1
tp6701
tp6702
Rp6703
ag0
(g5
g6
(I1
I-1
tp6704
tp6705
Rp6706
ag0
(g5
g6
(I1
I-1
tp6707
tp6708
Rp6709
ag0
(g5
g6
(I1
I0
tp6710
tp6711
Rp6712
ag0
(g5
g6
(I1
I-1
tp6713
tp6714
Rp6715
ag0
(g5
g6
(I1
I-1
tp6716
tp6717
Rp6718
ag0
(g5
g6
(I1
I-1
tp6719
tp6720
Rp6721
ag0
(g5
g6
(I1
I-1
tp6722
tp6723
Rp6724
ag0
(g5
g6
(I1
I-1
tp6725
tp6726
Rp6727
ag0
(g5
g6
(I1
I0
tp6728
tp6729
Rp6730
ag0
(g5
g6
(I1
I-1
tp6731
tp6732
Rp6733
ag0
(g5
g6
(I1
I0
tp6734
tp6735
Rp6736
ag0
(g5
g6
(I1
I0
tp6737
tp6738
Rp6739
ag0
(g5
g6
(I1
I0
tp6740
tp6741
Rp6742
ag0
(g5
g6
(I1
I0
tp6743
tp6744
Rp6745
ag0
(g5
g6
(I1
I0
tp6746
tp6747
Rp6748
ag0
(g5
g6
(I1
I0
tp6749
tp6750
Rp6751
ag0
(g5
g6
(I1
I0
tp6752
tp6753
Rp6754
ag0
(g5
g6
(I1
I0
tp6755
tp6756
Rp6757
ag0
(g5
g6
(I1
I0
tp6758
tp6759
Rp6760
aa(lp6761
g0
(g5
g6
(I1
I0
tp6762
tp6763
Rp6764
ag0
(g5
g6
(I1
I0
tp6765
tp6766
Rp6767
ag0
(g5
g6
(I1
I0
tp6768
tp6769
Rp6770
ag0
(g5
g6
(I1
I0
tp6771
tp6772
Rp6773
ag0
(g5
g6
(I1
I0
tp6774
tp6775
Rp6776
ag0
(g5
g6
(I1
I0
tp6777
tp6778
Rp6779
ag0
(g5
g6
(I1
I0
tp6780
tp6781
Rp6782
ag0
(g5
g6
(I1
I0
tp6783
tp6784
Rp6785
ag0
(g5
g6
(I1
I0
tp6786
tp6787
Rp6788
ag0
(g5
g6
(I1
I0
tp6789
tp6790
Rp6791
ag0
(g5
g6
(I1
I0
tp6792
tp6793
Rp6794
ag0
(g5
g6
(I1
I-1
tp6795
tp6796
Rp6797
ag0
(g5
g6
(I1
I-1
tp6798
tp6799
Rp6800
ag0
(g5
g6
(I1
I-1
tp6801
tp6802
Rp6803
ag0
(g5
g6
(I1
I0
tp6804
tp6805
Rp6806
ag0
(g5
g6
(I1
I0
tp6807
tp6808
Rp6809
ag0
(g5
g6
(I1
I-1
tp6810
tp6811
Rp6812
ag0
(g5
g6
(I1
I-1
tp6813
tp6814
Rp6815
ag0
(g5
g6
(I1
I0
tp6816
tp6817
Rp6818
ag0
(g5
g6
(I1
I-1
tp6819
tp6820
Rp6821
ag0
(g5
g6
(I1
I0
tp6822
tp6823
Rp6824
ag0
(g5
g6
(I1
I0
tp6825
tp6826
Rp6827
ag0
(g5
g6
(I1
I0
tp6828
tp6829
Rp6830
ag0
(g5
g6
(I1
I0
tp6831
tp6832
Rp6833
ag0
(g5
g6
(I1
I0
tp6834
tp6835
Rp6836
ag0
(g5
g6
(I1
I0
tp6837
tp6838
Rp6839
ag0
(g5
g6
(I1
I0
tp6840
tp6841
Rp6842
ag0
(g5
g6
(I1
I0
tp6843
tp6844
Rp6845
ag0
(g5
g6
(I1
I0
tp6846
tp6847
Rp6848
ag0
(g5
g6
(I1
I0
tp6849
tp6850
Rp6851
ag0
(g5
g6
(I1
I0
tp6852
tp6853
Rp6854
ag0
(g5
g6
(I1
I0
tp6855
tp6856
Rp6857
ag0
(g5
g6
(I1
I0
tp6858
tp6859
Rp6860
ag0
(g5
g6
(I1
I0
tp6861
tp6862
Rp6863
ag0
(g5
g6
(I1
I0
tp6864
tp6865
Rp6866
ag0
(g5
g6
(I1
I0
tp6867
tp6868
Rp6869
ag0
(g5
g6
(I1
I0
tp6870
tp6871
Rp6872
ag0
(g5
g6
(I1
I0
tp6873
tp6874
Rp6875
ag0
(g5
g6
(I1
I0
tp6876
tp6877
Rp6878
ag0
(g5
g6
(I1
I0
tp6879
tp6880
Rp6881
ag0
(g5
g6
(I1
I0
tp6882
tp6883
Rp6884
ag0
(g5
g6
(I1
I0
tp6885
tp6886
Rp6887
ag0
(g5
g6
(I1
I0
tp6888
tp6889
Rp6890
ag0
(g5
g6
(I1
I0
tp6891
tp6892
Rp6893
ag0
(g5
g6
(I1
I0
tp6894
tp6895
Rp6896
ag0
(g5
g6
(I1
I0
tp6897
tp6898
Rp6899
ag0
(g5
g6
(I1
I-1
tp6900
tp6901
Rp6902
ag0
(g5
g6
(I1
I0
tp6903
tp6904
Rp6905
ag0
(g5
g6
(I1
I-1
tp6906
tp6907
Rp6908
ag0
(g5
g6
(I1
I-1
tp6909
tp6910
Rp6911
ag0
(g5
g6
(I1
I-1
tp6912
tp6913
Rp6914
ag0
(g5
g6
(I1
I-1
tp6915
tp6916
Rp6917
ag0
(g5
g6
(I1
I0
tp6918
tp6919
Rp6920
ag0
(g5
g6
(I1
I-1
tp6921
tp6922
Rp6923
ag0
(g5
g6
(I1
I-1
tp6924
tp6925
Rp6926
ag0
(g5
g6
(I1
I0
tp6927
tp6928
Rp6929
ag0
(g5
g6
(I1
I0
tp6930
tp6931
Rp6932
ag0
(g5
g6
(I1
I0
tp6933
tp6934
Rp6935
ag0
(g5
g6
(I1
I0
tp6936
tp6937
Rp6938
ag0
(g5
g6
(I1
I0
tp6939
tp6940
Rp6941
ag0
(g5
g6
(I1
I0
tp6942
tp6943
Rp6944
ag0
(g5
g6
(I1
I0
tp6945
tp6946
Rp6947
ag0
(g5
g6
(I1
I0
tp6948
tp6949
Rp6950
ag0
(g5
g6
(I1
I0
tp6951
tp6952
Rp6953
aa(lp6954
g0
(g5
g6
(I1
I0
tp6955
tp6956
Rp6957
ag0
(g5
g6
(I1
I0
tp6958
tp6959
Rp6960
ag0
(g5
g6
(I1
I0
tp6961
tp6962
Rp6963
ag0
(g5
g6
(I1
I0
tp6964
tp6965
Rp6966
ag0
(g5
g6
(I1
I0
tp6967
tp6968
Rp6969
ag0
(g5
g6
(I1
I0
tp6970
tp6971
Rp6972
ag0
(g5
g6
(I1
I0
tp6973
tp6974
Rp6975
ag0
(g5
g6
(I1
I0
tp6976
tp6977
Rp6978
ag0
(g5
g6
(I1
I0
tp6979
tp6980
Rp6981
ag0
(g5
g6
(I1
I0
tp6982
tp6983
Rp6984
ag0
(g5
g6
(I1
I-1
tp6985
tp6986
Rp6987
ag0
(g5
g6
(I1
I0
tp6988
tp6989
Rp6990
ag0
(g5
g6
(I1
I0
tp6991
tp6992
Rp6993
ag0
(g5
g6
(I1
I0
tp6994
tp6995
Rp6996
ag0
(g5
g6
(I1
I-1
tp6997
tp6998
Rp6999
ag0
(g5
g6
(I1
I0
tp7000
tp7001
Rp7002
ag0
(g5
g6
(I1
I-1
tp7003
tp7004
Rp7005
ag0
(g5
g6
(I1
I-1
tp7006
tp7007
Rp7008
ag0
(g5
g6
(I1
I0
tp7009
tp7010
Rp7011
ag0
(g5
g6
(I1
I0
tp7012
tp7013
Rp7014
ag0
(g5
g6
(I1
I0
tp7015
tp7016
Rp7017
ag0
(g5
g6
(I1
I0
tp7018
tp7019
Rp7020
ag0
(g5
g6
(I1
I0
tp7021
tp7022
Rp7023
ag0
(g5
g6
(I1
I0
tp7024
tp7025
Rp7026
ag0
(g5
g6
(I1
I0
tp7027
tp7028
Rp7029
ag0
(g5
g6
(I1
I0
tp7030
tp7031
Rp7032
ag0
(g5
g6
(I1
I0
tp7033
tp7034
Rp7035
ag0
(g5
g6
(I1
I0
tp7036
tp7037
Rp7038
ag0
(g5
g6
(I1
I0
tp7039
tp7040
Rp7041
ag0
(g5
g6
(I1
I0
tp7042
tp7043
Rp7044
ag0
(g5
g6
(I1
I0
tp7045
tp7046
Rp7047
ag0
(g5
g6
(I1
I0
tp7048
tp7049
Rp7050
ag0
(g5
g6
(I1
I0
tp7051
tp7052
Rp7053
ag0
(g5
g6
(I1
I0
tp7054
tp7055
Rp7056
ag0
(g5
g6
(I1
I0
tp7057
tp7058
Rp7059
ag0
(g5
g6
(I1
I0
tp7060
tp7061
Rp7062
ag0
(g5
g6
(I1
I0
tp7063
tp7064
Rp7065
ag0
(g5
g6
(I1
I0
tp7066
tp7067
Rp7068
ag0
(g5
g6
(I1
I0
tp7069
tp7070
Rp7071
ag0
(g5
g6
(I1
I0
tp7072
tp7073
Rp7074
ag0
(g5
g6
(I1
I0
tp7075
tp7076
Rp7077
ag0
(g5
g6
(I1
I0
tp7078
tp7079
Rp7080
ag0
(g5
g6
(I1
I0
tp7081
tp7082
Rp7083
ag0
(g5
g6
(I1
I0
tp7084
tp7085
Rp7086
ag0
(g5
g6
(I1
I0
tp7087
tp7088
Rp7089
ag0
(g5
g6
(I1
I0
tp7090
tp7091
Rp7092
ag0
(g5
g6
(I1
I-1
tp7093
tp7094
Rp7095
ag0
(g5
g6
(I1
I-1
tp7096
tp7097
Rp7098
ag0
(g5
g6
(I1
I0
tp7099
tp7100
Rp7101
ag0
(g5
g6
(I1
I0
tp7102
tp7103
Rp7104
ag0
(g5
g6
(I1
I-1
tp7105
tp7106
Rp7107
ag0
(g5
g6
(I1
I-1
tp7108
tp7109
Rp7110
ag0
(g5
g6
(I1
I-1
tp7111
tp7112
Rp7113
ag0
(g5
g6
(I1
I0
tp7114
tp7115
Rp7116
ag0
(g5
g6
(I1
I-1
tp7117
tp7118
Rp7119
ag0
(g5
g6
(I1
I0
tp7120
tp7121
Rp7122
ag0
(g5
g6
(I1
I0
tp7123
tp7124
Rp7125
ag0
(g5
g6
(I1
I0
tp7126
tp7127
Rp7128
ag0
(g5
g6
(I1
I0
tp7129
tp7130
Rp7131
ag0
(g5
g6
(I1
I0
tp7132
tp7133
Rp7134
ag0
(g5
g6
(I1
I0
tp7135
tp7136
Rp7137
ag0
(g5
g6
(I1
I0
tp7138
tp7139
Rp7140
ag0
(g5
g6
(I1
I0
tp7141
tp7142
Rp7143
ag0
(g5
g6
(I1
I0
tp7144
tp7145
Rp7146
aa(lp7147
g0
(g5
g6
(I1
I0
tp7148
tp7149
Rp7150
ag0
(g5
g6
(I1
I0
tp7151
tp7152
Rp7153
ag0
(g5
g6
(I1
I0
tp7154
tp7155
Rp7156
ag0
(g5
g6
(I1
I0
tp7157
tp7158
Rp7159
ag0
(g5
g6
(I1
I0
tp7160
tp7161
Rp7162
ag0
(g5
g6
(I1
I0
tp7163
tp7164
Rp7165
ag0
(g5
g6
(I1
I0
tp7166
tp7167
Rp7168
ag0
(g5
g6
(I1
I0
tp7169
tp7170
Rp7171
ag0
(g5
g6
(I1
I0
tp7172
tp7173
Rp7174
ag0
(g5
g6
(I1
I0
tp7175
tp7176
Rp7177
ag0
(g5
g6
(I1
I-1
tp7178
tp7179
Rp7180
ag0
(g5
g6
(I1
I-1
tp7181
tp7182
Rp7183
ag0
(g5
g6
(I1
I-1
tp7184
tp7185
Rp7186
ag0
(g5
g6
(I1
I-1
tp7187
tp7188
Rp7189
ag0
(g5
g6
(I1
I0
tp7190
tp7191
Rp7192
ag0
(g5
g6
(I1
I-1
tp7193
tp7194
Rp7195
ag0
(g5
g6
(I1
I-1
tp7196
tp7197
Rp7198
ag0
(g5
g6
(I1
I-1
tp7199
tp7200
Rp7201
ag0
(g5
g6
(I1
I0
tp7202
tp7203
Rp7204
ag0
(g5
g6
(I1
I0
tp7205
tp7206
Rp7207
ag0
(g5
g6
(I1
I0
tp7208
tp7209
Rp7210
ag0
(g5
g6
(I1
I0
tp7211
tp7212
Rp7213
ag0
(g5
g6
(I1
I0
tp7214
tp7215
Rp7216
ag0
(g5
g6
(I1
I0
tp7217
tp7218
Rp7219
ag0
(g5
g6
(I1
I0
tp7220
tp7221
Rp7222
ag0
(g5
g6
(I1
I0
tp7223
tp7224
Rp7225
ag0
(g5
g6
(I1
I0
tp7226
tp7227
Rp7228
ag0
(g5
g6
(I1
I0
tp7229
tp7230
Rp7231
ag0
(g5
g6
(I1
I0
tp7232
tp7233
Rp7234
ag0
(g5
g6
(I1
I0
tp7235
tp7236
Rp7237
ag0
(g5
g6
(I1
I0
tp7238
tp7239
Rp7240
ag0
(g5
g6
(I1
I0
tp7241
tp7242
Rp7243
ag0
(g5
g6
(I1
I0
tp7244
tp7245
Rp7246
ag0
(g5
g6
(I1
I0
tp7247
tp7248
Rp7249
ag0
(g5
g6
(I1
I0
tp7250
tp7251
Rp7252
ag0
(g5
g6
(I1
I0
tp7253
tp7254
Rp7255
ag0
(g5
g6
(I1
I0
tp7256
tp7257
Rp7258
ag0
(g5
g6
(I1
I0
tp7259
tp7260
Rp7261
ag0
(g5
g6
(I1
I0
tp7262
tp7263
Rp7264
ag0
(g5
g6
(I1
I0
tp7265
tp7266
Rp7267
ag0
(g5
g6
(I1
I0
tp7268
tp7269
Rp7270
ag0
(g5
g6
(I1
I0
tp7271
tp7272
Rp7273
ag0
(g5
g6
(I1
I0
tp7274
tp7275
Rp7276
ag0
(g5
g6
(I1
I0
tp7277
tp7278
Rp7279
ag0
(g5
g6
(I1
I0
tp7280
tp7281
Rp7282
ag0
(g5
g6
(I1
I0
tp7283
tp7284
Rp7285
ag0
(g5
g6
(I1
I0
tp7286
tp7287
Rp7288
ag0
(g5
g6
(I1
I-1
tp7289
tp7290
Rp7291
ag0
(g5
g6
(I1
I0
tp7292
tp7293
Rp7294
ag0
(g5
g6
(I1
I-1
tp7295
tp7296
Rp7297
ag0
(g5
g6
(I1
I-1
tp7298
tp7299
Rp7300
ag0
(g5
g6
(I1
I-1
tp7301
tp7302
Rp7303
ag0
(g5
g6
(I1
I-1
tp7304
tp7305
Rp7306
ag0
(g5
g6
(I1
I-1
tp7307
tp7308
Rp7309
ag0
(g5
g6
(I1
I-1
tp7310
tp7311
Rp7312
ag0
(g5
g6
(I1
I0
tp7313
tp7314
Rp7315
ag0
(g5
g6
(I1
I0
tp7316
tp7317
Rp7318
ag0
(g5
g6
(I1
I0
tp7319
tp7320
Rp7321
ag0
(g5
g6
(I1
I0
tp7322
tp7323
Rp7324
ag0
(g5
g6
(I1
I0
tp7325
tp7326
Rp7327
ag0
(g5
g6
(I1
I0
tp7328
tp7329
Rp7330
ag0
(g5
g6
(I1
I0
tp7331
tp7332
Rp7333
ag0
(g5
g6
(I1
I0
tp7334
tp7335
Rp7336
ag0
(g5
g6
(I1
I0
tp7337
tp7338
Rp7339
aa(lp7340
g0
(g5
g6
(I1
I0
tp7341
tp7342
Rp7343
ag0
(g5
g6
(I1
I0
tp7344
tp7345
Rp7346
ag0
(g5
g6
(I1
I0
tp7347
tp7348
Rp7349
ag0
(g5
g6
(I1
I0
tp7350
tp7351
Rp7352
ag0
(g5
g6
(I1
I0
tp7353
tp7354
Rp7355
ag0
(g5
g6
(I1
I0
tp7356
tp7357
Rp7358
ag0
(g5
g6
(I1
I0
tp7359
tp7360
Rp7361
ag0
(g5
g6
(I1
I0
tp7362
tp7363
Rp7364
ag0
(g5
g6
(I1
I0
tp7365
tp7366
Rp7367
ag0
(g5
g6
(I1
I0
tp7368
tp7369
Rp7370
ag0
(g5
g6
(I1
I-1
tp7371
tp7372
Rp7373
ag0
(g5
g6
(I1
I-1
tp7374
tp7375
Rp7376
ag0
(g5
g6
(I1
I-1
tp7377
tp7378
Rp7379
ag0
(g5
g6
(I1
I0
tp7380
tp7381
Rp7382
ag0
(g5
g6
(I1
I-1
tp7383
tp7384
Rp7385
ag0
(g5
g6
(I1
I-1
tp7386
tp7387
Rp7388
ag0
(g5
g6
(I1
I0
tp7389
tp7390
Rp7391
ag0
(g5
g6
(I1
I0
tp7392
tp7393
Rp7394
ag0
(g5
g6
(I1
I0
tp7395
tp7396
Rp7397
ag0
(g5
g6
(I1
I0
tp7398
tp7399
Rp7400
ag0
(g5
g6
(I1
I0
tp7401
tp7402
Rp7403
ag0
(g5
g6
(I1
I0
tp7404
tp7405
Rp7406
ag0
(g5
g6
(I1
I0
tp7407
tp7408
Rp7409
ag0
(g5
g6
(I1
I0
tp7410
tp7411
Rp7412
ag0
(g5
g6
(I1
I0
tp7413
tp7414
Rp7415
ag0
(g5
g6
(I1
I0
tp7416
tp7417
Rp7418
ag0
(g5
g6
(I1
I0
tp7419
tp7420
Rp7421
ag0
(g5
g6
(I1
I0
tp7422
tp7423
Rp7424
ag0
(g5
g6
(I1
I0
tp7425
tp7426
Rp7427
ag0
(g5
g6
(I1
I0
tp7428
tp7429
Rp7430
ag0
(g5
g6
(I1
I0
tp7431
tp7432
Rp7433
ag0
(g5
g6
(I1
I0
tp7434
tp7435
Rp7436
ag0
(g5
g6
(I1
I0
tp7437
tp7438
Rp7439
ag0
(g5
g6
(I1
I0
tp7440
tp7441
Rp7442
ag0
(g5
g6
(I1
I0
tp7443
tp7444
Rp7445
ag0
(g5
g6
(I1
I0
tp7446
tp7447
Rp7448
ag0
(g5
g6
(I1
I0
tp7449
tp7450
Rp7451
ag0
(g5
g6
(I1
I0
tp7452
tp7453
Rp7454
ag0
(g5
g6
(I1
I0
tp7455
tp7456
Rp7457
ag0
(g5
g6
(I1
I0
tp7458
tp7459
Rp7460
ag0
(g5
g6
(I1
I0
tp7461
tp7462
Rp7463
ag0
(g5
g6
(I1
I0
tp7464
tp7465
Rp7466
ag0
(g5
g6
(I1
I0
tp7467
tp7468
Rp7469
ag0
(g5
g6
(I1
I0
tp7470
tp7471
Rp7472
ag0
(g5
g6
(I1
I0
tp7473
tp7474
Rp7475
ag0
(g5
g6
(I1
I0
tp7476
tp7477
Rp7478
ag0
(g5
g6
(I1
I0
tp7479
tp7480
Rp7481
ag0
(g5
g6
(I1
I0
tp7482
tp7483
Rp7484
ag0
(g5
g6
(I1
I-1
tp7485
tp7486
Rp7487
ag0
(g5
g6
(I1
I0
tp7488
tp7489
Rp7490
ag0
(g5
g6
(I1
I-1
tp7491
tp7492
Rp7493
ag0
(g5
g6
(I1
I-1
tp7494
tp7495
Rp7496
ag0
(g5
g6
(I1
I-1
tp7497
tp7498
Rp7499
ag0
(g5
g6
(I1
I0
tp7500
tp7501
Rp7502
ag0
(g5
g6
(I1
I-1
tp7503
tp7504
Rp7505
ag0
(g5
g6
(I1
I0
tp7506
tp7507
Rp7508
ag0
(g5
g6
(I1
I0
tp7509
tp7510
Rp7511
ag0
(g5
g6
(I1
I0
tp7512
tp7513
Rp7514
ag0
(g5
g6
(I1
I0
tp7515
tp7516
Rp7517
ag0
(g5
g6
(I1
I0
tp7518
tp7519
Rp7520
ag0
(g5
g6
(I1
I0
tp7521
tp7522
Rp7523
ag0
(g5
g6
(I1
I0
tp7524
tp7525
Rp7526
ag0
(g5
g6
(I1
I0
tp7527
tp7528
Rp7529
ag0
(g5
g6
(I1
I0
tp7530
tp7531
Rp7532
aa(lp7533
g0
(g5
g6
(I1
I0
tp7534
tp7535
Rp7536
ag0
(g5
g6
(I1
I0
tp7537
tp7538
Rp7539
ag0
(g5
g6
(I1
I0
tp7540
tp7541
Rp7542
ag0
(g5
g6
(I1
I0
tp7543
tp7544
Rp7545
ag0
(g5
g6
(I1
I0
tp7546
tp7547
Rp7548
ag0
(g5
g6
(I1
I0
tp7549
tp7550
Rp7551
ag0
(g5
g6
(I1
I0
tp7552
tp7553
Rp7554
ag0
(g5
g6
(I1
I0
tp7555
tp7556
Rp7557
ag0
(g5
g6
(I1
I0
tp7558
tp7559
Rp7560
ag0
(g5
g6
(I1
I0
tp7561
tp7562
Rp7563
ag0
(g5
g6
(I1
I-1
tp7564
tp7565
Rp7566
ag0
(g5
g6
(I1
I0
tp7567
tp7568
Rp7569
ag0
(g5
g6
(I1
I-1
tp7570
tp7571
Rp7572
ag0
(g5
g6
(I1
I0
tp7573
tp7574
Rp7575
ag0
(g5
g6
(I1
I0
tp7576
tp7577
Rp7578
ag0
(g5
g6
(I1
I-1
tp7579
tp7580
Rp7581
ag0
(g5
g6
(I1
I0
tp7582
tp7583
Rp7584
ag0
(g5
g6
(I1
I0
tp7585
tp7586
Rp7587
ag0
(g5
g6
(I1
I0
tp7588
tp7589
Rp7590
ag0
(g5
g6
(I1
I0
tp7591
tp7592
Rp7593
ag0
(g5
g6
(I1
I0
tp7594
tp7595
Rp7596
ag0
(g5
g6
(I1
I0
tp7597
tp7598
Rp7599
ag0
(g5
g6
(I1
I0
tp7600
tp7601
Rp7602
ag0
(g5
g6
(I1
I0
tp7603
tp7604
Rp7605
ag0
(g5
g6
(I1
I0
tp7606
tp7607
Rp7608
ag0
(g5
g6
(I1
I0
tp7609
tp7610
Rp7611
ag0
(g5
g6
(I1
I0
tp7612
tp7613
Rp7614
ag0
(g5
g6
(I1
I0
tp7615
tp7616
Rp7617
ag0
(g5
g6
(I1
I0
tp7618
tp7619
Rp7620
ag0
(g5
g6
(I1
I0
tp7621
tp7622
Rp7623
ag0
(g5
g6
(I1
I0
tp7624
tp7625
Rp7626
ag0
(g5
g6
(I1
I0
tp7627
tp7628
Rp7629
ag0
(g5
g6
(I1
I0
tp7630
tp7631
Rp7632
ag0
(g5
g6
(I1
I0
tp7633
tp7634
Rp7635
ag0
(g5
g6
(I1
I0
tp7636
tp7637
Rp7638
ag0
(g5
g6
(I1
I0
tp7639
tp7640
Rp7641
ag0
(g5
g6
(I1
I0
tp7642
tp7643
Rp7644
ag0
(g5
g6
(I1
I0
tp7645
tp7646
Rp7647
ag0
(g5
g6
(I1
I0
tp7648
tp7649
Rp7650
ag0
(g5
g6
(I1
I0
tp7651
tp7652
Rp7653
ag0
(g5
g6
(I1
I0
tp7654
tp7655
Rp7656
ag0
(g5
g6
(I1
I0
tp7657
tp7658
Rp7659
ag0
(g5
g6
(I1
I0
tp7660
tp7661
Rp7662
ag0
(g5
g6
(I1
I0
tp7663
tp7664
Rp7665
ag0
(g5
g6
(I1
I0
tp7666
tp7667
Rp7668
ag0
(g5
g6
(I1
I0
tp7669
tp7670
Rp7671
ag0
(g5
g6
(I1
I0
tp7672
tp7673
Rp7674
ag0
(g5
g6
(I1
I0
tp7675
tp7676
Rp7677
ag0
(g5
g6
(I1
I0
tp7678
tp7679
Rp7680
ag0
(g5
g6
(I1
I-1
tp7681
tp7682
Rp7683
ag0
(g5
g6
(I1
I0
tp7684
tp7685
Rp7686
ag0
(g5
g6
(I1
I-1
tp7687
tp7688
Rp7689
ag0
(g5
g6
(I1
I0
tp7690
tp7691
Rp7692
ag0
(g5
g6
(I1
I-1
tp7693
tp7694
Rp7695
ag0
(g5
g6
(I1
I-1
tp7696
tp7697
Rp7698
ag0
(g5
g6
(I1
I0
tp7699
tp7700
Rp7701
ag0
(g5
g6
(I1
I0
tp7702
tp7703
Rp7704
ag0
(g5
g6
(I1
I0
tp7705
tp7706
Rp7707
ag0
(g5
g6
(I1
I0
tp7708
tp7709
Rp7710
ag0
(g5
g6
(I1
I0
tp7711
tp7712
Rp7713
ag0
(g5
g6
(I1
I0
tp7714
tp7715
Rp7716
ag0
(g5
g6
(I1
I0
tp7717
tp7718
Rp7719
ag0
(g5
g6
(I1
I0
tp7720
tp7721
Rp7722
ag0
(g5
g6
(I1
I0
tp7723
tp7724
Rp7725
aa(lp7726
g0
(g5
g6
(I1
I0
tp7727
tp7728
Rp7729
ag0
(g5
g6
(I1
I0
tp7730
tp7731
Rp7732
ag0
(g5
g6
(I1
I0
tp7733
tp7734
Rp7735
ag0
(g5
g6
(I1
I0
tp7736
tp7737
Rp7738
ag0
(g5
g6
(I1
I0
tp7739
tp7740
Rp7741
ag0
(g5
g6
(I1
I0
tp7742
tp7743
Rp7744
ag0
(g5
g6
(I1
I0
tp7745
tp7746
Rp7747
ag0
(g5
g6
(I1
I0
tp7748
tp7749
Rp7750
ag0
(g5
g6
(I1
I0
tp7751
tp7752
Rp7753
ag0
(g5
g6
(I1
I0
tp7754
tp7755
Rp7756
ag0
(g5
g6
(I1
I-1
tp7757
tp7758
Rp7759
ag0
(g5
g6
(I1
I-1
tp7760
tp7761
Rp7762
ag0
(g5
g6
(I1
I-1
tp7763
tp7764
Rp7765
ag0
(g5
g6
(I1
I0
tp7766
tp7767
Rp7768
ag0
(g5
g6
(I1
I0
tp7769
tp7770
Rp7771
ag0
(g5
g6
(I1
I0
tp7772
tp7773
Rp7774
ag0
(g5
g6
(I1
I0
tp7775
tp7776
Rp7777
ag0
(g5
g6
(I1
I0
tp7778
tp7779
Rp7780
ag0
(g5
g6
(I1
I0
tp7781
tp7782
Rp7783
ag0
(g5
g6
(I1
I0
tp7784
tp7785
Rp7786
ag0
(g5
g6
(I1
I0
tp7787
tp7788
Rp7789
ag0
(g5
g6
(I1
I0
tp7790
tp7791
Rp7792
ag0
(g5
g6
(I1
I0
tp7793
tp7794
Rp7795
ag0
(g5
g6
(I1
I0
tp7796
tp7797
Rp7798
ag0
(g5
g6
(I1
I0
tp7799
tp7800
Rp7801
ag0
(g5
g6
(I1
I0
tp7802
tp7803
Rp7804
ag0
(g5
g6
(I1
I0
tp7805
tp7806
Rp7807
ag0
(g5
g6
(I1
I0
tp7808
tp7809
Rp7810
ag0
(g5
g6
(I1
I0
tp7811
tp7812
Rp7813
ag0
(g5
g6
(I1
I0
tp7814
tp7815
Rp7816
ag0
(g5
g6
(I1
I0
tp7817
tp7818
Rp7819
ag0
(g5
g6
(I1
I0
tp7820
tp7821
Rp7822
ag0
(g5
g6
(I1
I0
tp7823
tp7824
Rp7825
ag0
(g5
g6
(I1
I0
tp7826
tp7827
Rp7828
ag0
(g5
g6
(I1
I0
tp7829
tp7830
Rp7831
ag0
(g5
g6
(I1
I0
tp7832
tp7833
Rp7834
ag0
(g5
g6
(I1
I0
tp7835
tp7836
Rp7837
ag0
(g5
g6
(I1
I0
tp7838
tp7839
Rp7840
ag0
(g5
g6
(I1
I0
tp7841
tp7842
Rp7843
ag0
(g5
g6
(I1
I0
tp7844
tp7845
Rp7846
ag0
(g5
g6
(I1
I0
tp7847
tp7848
Rp7849
ag0
(g5
g6
(I1
I0
tp7850
tp7851
Rp7852
ag0
(g5
g6
(I1
I0
tp7853
tp7854
Rp7855
ag0
(g5
g6
(I1
I0
tp7856
tp7857
Rp7858
ag0
(g5
g6
(I1
I0
tp7859
tp7860
Rp7861
ag0
(g5
g6
(I1
I0
tp7862
tp7863
Rp7864
ag0
(g5
g6
(I1
I0
tp7865
tp7866
Rp7867
ag0
(g5
g6
(I1
I0
tp7868
tp7869
Rp7870
ag0
(g5
g6
(I1
I0
tp7871
tp7872
Rp7873
ag0
(g5
g6
(I1
I0
tp7874
tp7875
Rp7876
ag0
(g5
g6
(I1
I-1
tp7877
tp7878
Rp7879
ag0
(g5
g6
(I1
I-1
tp7880
tp7881
Rp7882
ag0
(g5
g6
(I1
I-1
tp7883
tp7884
Rp7885
ag0
(g5
g6
(I1
I-1
tp7886
tp7887
Rp7888
ag0
(g5
g6
(I1
I0
tp7889
tp7890
Rp7891
ag0
(g5
g6
(I1
I0
tp7892
tp7893
Rp7894
ag0
(g5
g6
(I1
I0
tp7895
tp7896
Rp7897
ag0
(g5
g6
(I1
I0
tp7898
tp7899
Rp7900
ag0
(g5
g6
(I1
I0
tp7901
tp7902
Rp7903
ag0
(g5
g6
(I1
I0
tp7904
tp7905
Rp7906
ag0
(g5
g6
(I1
I0
tp7907
tp7908
Rp7909
ag0
(g5
g6
(I1
I0
tp7910
tp7911
Rp7912
ag0
(g5
g6
(I1
I0
tp7913
tp7914
Rp7915
ag0
(g5
g6
(I1
I0
tp7916
tp7917
Rp7918
aa(lp7919
g0
(g5
g6
(I1
I0
tp7920
tp7921
Rp7922
ag0
(g5
g6
(I1
I0
tp7923
tp7924
Rp7925
ag0
(g5
g6
(I1
I0
tp7926
tp7927
Rp7928
ag0
(g5
g6
(I1
I0
tp7929
tp7930
Rp7931
ag0
(g5
g6
(I1
I0
tp7932
tp7933
Rp7934
ag0
(g5
g6
(I1
I0
tp7935
tp7936
Rp7937
ag0
(g5
g6
(I1
I0
tp7938
tp7939
Rp7940
ag0
(g5
g6
(I1
I0
tp7941
tp7942
Rp7943
ag0
(g5
g6
(I1
I0
tp7944
tp7945
Rp7946
ag0
(g5
g6
(I1
I0
tp7947
tp7948
Rp7949
ag0
(g5
g6
(I1
I-1
tp7950
tp7951
Rp7952
ag0
(g5
g6
(I1
I-1
tp7953
tp7954
Rp7955
ag0
(g5
g6
(I1
I0
tp7956
tp7957
Rp7958
ag0
(g5
g6
(I1
I0
tp7959
tp7960
Rp7961
ag0
(g5
g6
(I1
I0
tp7962
tp7963
Rp7964
ag0
(g5
g6
(I1
I0
tp7965
tp7966
Rp7967
ag0
(g5
g6
(I1
I0
tp7968
tp7969
Rp7970
ag0
(g5
g6
(I1
I0
tp7971
tp7972
Rp7973
ag0
(g5
g6
(I1
I0
tp7974
tp7975
Rp7976
ag0
(g5
g6
(I1
I0
tp7977
tp7978
Rp7979
ag0
(g5
g6
(I1
I0
tp7980
tp7981
Rp7982
ag0
(g5
g6
(I1
I0
tp7983
tp7984
Rp7985
ag0
(g5
g6
(I1
I0
tp7986
tp7987
Rp7988
ag0
(g5
g6
(I1
I0
tp7989
tp7990
Rp7991
ag0
(g5
g6
(I1
I0
tp7992
tp7993
Rp7994
ag0
(g5
g6
(I1
I0
tp7995
tp7996
Rp7997
ag0
(g5
g6
(I1
I0
tp7998
tp7999
Rp8000
ag0
(g5
g6
(I1
I0
tp8001
tp8002
Rp8003
ag0
(g5
g6
(I1
I0
tp8004
tp8005
Rp8006
ag0
(g5
g6
(I1
I0
tp8007
tp8008
Rp8009
ag0
(g5
g6
(I1
I0
tp8010
tp8011
Rp8012
ag0
(g5
g6
(I1
I0
tp8013
tp8014
Rp8015
ag0
(g5
g6
(I1
I0
tp8016
tp8017
Rp8018
ag0
(g5
g6
(I1
I0
tp8019
tp8020
Rp8021
ag0
(g5
g6
(I1
I0
tp8022
tp8023
Rp8024
ag0
(g5
g6
(I1
I0
tp8025
tp8026
Rp8027
ag0
(g5
g6
(I1
I0
tp8028
tp8029
Rp8030
ag0
(g5
g6
(I1
I0
tp8031
tp8032
Rp8033
ag0
(g5
g6
(I1
I0
tp8034
tp8035
Rp8036
ag0
(g5
g6
(I1
I0
tp8037
tp8038
Rp8039
ag0
(g5
g6
(I1
I0
tp8040
tp8041
Rp8042
ag0
(g5
g6
(I1
I0
tp8043
tp8044
Rp8045
ag0
(g5
g6
(I1
I0
tp8046
tp8047
Rp8048
ag0
(g5
g6
(I1
I0
tp8049
tp8050
Rp8051
ag0
(g5
g6
(I1
I0
tp8052
tp8053
Rp8054
ag0
(g5
g6
(I1
I0
tp8055
tp8056
Rp8057
ag0
(g5
g6
(I1
I0
tp8058
tp8059
Rp8060
ag0
(g5
g6
(I1
I0
tp8061
tp8062
Rp8063
ag0
(g5
g6
(I1
I0
tp8064
tp8065
Rp8066
ag0
(g5
g6
(I1
I0
tp8067
tp8068
Rp8069
ag0
(g5
g6
(I1
I0
tp8070
tp8071
Rp8072
ag0
(g5
g6
(I1
I-1
tp8073
tp8074
Rp8075
ag0
(g5
g6
(I1
I-1
tp8076
tp8077
Rp8078
ag0
(g5
g6
(I1
I0
tp8079
tp8080
Rp8081
ag0
(g5
g6
(I1
I0
tp8082
tp8083
Rp8084
ag0
(g5
g6
(I1
I0
tp8085
tp8086
Rp8087
ag0
(g5
g6
(I1
I0
tp8088
tp8089
Rp8090
ag0
(g5
g6
(I1
I0
tp8091
tp8092
Rp8093
ag0
(g5
g6
(I1
I0
tp8094
tp8095
Rp8096
ag0
(g5
g6
(I1
I0
tp8097
tp8098
Rp8099
ag0
(g5
g6
(I1
I0
tp8100
tp8101
Rp8102
ag0
(g5
g6
(I1
I0
tp8103
tp8104
Rp8105
ag0
(g5
g6
(I1
I0
tp8106
tp8107
Rp8108
ag0
(g5
g6
(I1
I0
tp8109
tp8110
Rp8111
aa(lp8112
g0
(g5
g6
(I1
I0
tp8113
tp8114
Rp8115
ag0
(g5
g6
(I1
I0
tp8116
tp8117
Rp8118
ag0
(g5
g6
(I1
I0
tp8119
tp8120
Rp8121
ag0
(g5
g6
(I1
I0
tp8122
tp8123
Rp8124
ag0
(g5
g6
(I1
I0
tp8125
tp8126
Rp8127
ag0
(g5
g6
(I1
I0
tp8128
tp8129
Rp8130
ag0
(g5
g6
(I1
I0
tp8131
tp8132
Rp8133
ag0
(g5
g6
(I1
I0
tp8134
tp8135
Rp8136
ag0
(g5
g6
(I1
I0
tp8137
tp8138
Rp8139
ag0
(g5
g6
(I1
I0
tp8140
tp8141
Rp8142
ag0
(g5
g6
(I1
I-1
tp8143
tp8144
Rp8145
ag0
(g5
g6
(I1
I0
tp8146
tp8147
Rp8148
ag0
(g5
g6
(I1
I0
tp8149
tp8150
Rp8151
ag0
(g5
g6
(I1
I0
tp8152
tp8153
Rp8154
ag0
(g5
g6
(I1
I0
tp8155
tp8156
Rp8157
ag0
(g5
g6
(I1
I0
tp8158
tp8159
Rp8160
ag0
(g5
g6
(I1
I0
tp8161
tp8162
Rp8163
ag0
(g5
g6
(I1
I0
tp8164
tp8165
Rp8166
ag0
(g5
g6
(I1
I0
tp8167
tp8168
Rp8169
ag0
(g5
g6
(I1
I0
tp8170
tp8171
Rp8172
ag0
(g5
g6
(I1
I0
tp8173
tp8174
Rp8175
ag0
(g5
g6
(I1
I0
tp8176
tp8177
Rp8178
ag0
(g5
g6
(I1
I0
tp8179
tp8180
Rp8181
ag0
(g5
g6
(I1
I0
tp8182
tp8183
Rp8184
ag0
(g5
g6
(I1
I0
tp8185
tp8186
Rp8187
ag0
(g5
g6
(I1
I0
tp8188
tp8189
Rp8190
ag0
(g5
g6
(I1
I0
tp8191
tp8192
Rp8193
ag0
(g5
g6
(I1
I0
tp8194
tp8195
Rp8196
ag0
(g5
g6
(I1
I0
tp8197
tp8198
Rp8199
ag0
(g5
g6
(I1
I0
tp8200
tp8201
Rp8202
ag0
(g5
g6
(I1
I0
tp8203
tp8204
Rp8205
ag0
(g5
g6
(I1
I0
tp8206
tp8207
Rp8208
ag0
(g5
g6
(I1
I0
tp8209
tp8210
Rp8211
ag0
(g5
g6
(I1
I0
tp8212
tp8213
Rp8214
ag0
(g5
g6
(I1
I0
tp8215
tp8216
Rp8217
ag0
(g5
g6
(I1
I0
tp8218
tp8219
Rp8220
ag0
(g5
g6
(I1
I0
tp8221
tp8222
Rp8223
ag0
(g5
g6
(I1
I0
tp8224
tp8225
Rp8226
ag0
(g5
g6
(I1
I0
tp8227
tp8228
Rp8229
ag0
(g5
g6
(I1
I0
tp8230
tp8231
Rp8232
ag0
(g5
g6
(I1
I0
tp8233
tp8234
Rp8235
ag0
(g5
g6
(I1
I0
tp8236
tp8237
Rp8238
ag0
(g5
g6
(I1
I0
tp8239
tp8240
Rp8241
ag0
(g5
g6
(I1
I0
tp8242
tp8243
Rp8244
ag0
(g5
g6
(I1
I0
tp8245
tp8246
Rp8247
ag0
(g5
g6
(I1
I0
tp8248
tp8249
Rp8250
ag0
(g5
g6
(I1
I0
tp8251
tp8252
Rp8253
ag0
(g5
g6
(I1
I0
tp8254
tp8255
Rp8256
ag0
(g5
g6
(I1
I0
tp8257
tp8258
Rp8259
ag0
(g5
g6
(I1
I0
tp8260
tp8261
Rp8262
ag0
(g5
g6
(I1
I0
tp8263
tp8264
Rp8265
ag0
(g5
g6
(I1
I0
tp8266
tp8267
Rp8268
ag0
(g5
g6
(I1
I-1
tp8269
tp8270
Rp8271
ag0
(g5
g6
(I1
I0
tp8272
tp8273
Rp8274
ag0
(g5
g6
(I1
I0
tp8275
tp8276
Rp8277
ag0
(g5
g6
(I1
I0
tp8278
tp8279
Rp8280
ag0
(g5
g6
(I1
I0
tp8281
tp8282
Rp8283
ag0
(g5
g6
(I1
I0
tp8284
tp8285
Rp8286
ag0
(g5
g6
(I1
I0
tp8287
tp8288
Rp8289
ag0
(g5
g6
(I1
I0
tp8290
tp8291
Rp8292
ag0
(g5
g6
(I1
I0
tp8293
tp8294
Rp8295
ag0
(g5
g6
(I1
I0
tp8296
tp8297
Rp8298
ag0
(g5
g6
(I1
I0
tp8299
tp8300
Rp8301
ag0
(g5
g6
(I1
I0
tp8302
tp8303
Rp8304
aa(lp8305
g0
(g5
g6
(I1
I0
tp8306
tp8307
Rp8308
ag0
(g5
g6
(I1
I0
tp8309
tp8310
Rp8311
ag0
(g5
g6
(I1
I0
tp8312
tp8313
Rp8314
ag0
(g5
g6
(I1
I0
tp8315
tp8316
Rp8317
ag0
(g5
g6
(I1
I0
tp8318
tp8319
Rp8320
ag0
(g5
g6
(I1
I0
tp8321
tp8322
Rp8323
ag0
(g5
g6
(I1
I0
tp8324
tp8325
Rp8326
ag0
(g5
g6
(I1
I0
tp8327
tp8328
Rp8329
ag0
(g5
g6
(I1
I0
tp8330
tp8331
Rp8332
ag0
(g5
g6
(I1
I0
tp8333
tp8334
Rp8335
ag0
(g5
g6
(I1
I0
tp8336
tp8337
Rp8338
ag0
(g5
g6
(I1
I-1
tp8339
tp8340
Rp8341
ag0
(g5
g6
(I1
I0
tp8342
tp8343
Rp8344
ag0
(g5
g6
(I1
I0
tp8345
tp8346
Rp8347
ag0
(g5
g6
(I1
I0
tp8348
tp8349
Rp8350
ag0
(g5
g6
(I1
I0
tp8351
tp8352
Rp8353
ag0
(g5
g6
(I1
I0
tp8354
tp8355
Rp8356
ag0
(g5
g6
(I1
I0
tp8357
tp8358
Rp8359
ag0
(g5
g6
(I1
I0
tp8360
tp8361
Rp8362
ag0
(g5
g6
(I1
I0
tp8363
tp8364
Rp8365
ag0
(g5
g6
(I1
I0
tp8366
tp8367
Rp8368
ag0
(g5
g6
(I1
I0
tp8369
tp8370
Rp8371
ag0
(g5
g6
(I1
I0
tp8372
tp8373
Rp8374
ag0
(g5
g6
(I1
I0
tp8375
tp8376
Rp8377
ag0
(g5
g6
(I1
I0
tp8378
tp8379
Rp8380
ag0
(g5
g6
(I1
I0
tp8381
tp8382
Rp8383
ag0
(g5
g6
(I1
I0
tp8384
tp8385
Rp8386
ag0
(g5
g6
(I1
I0
tp8387
tp8388
Rp8389
ag0
(g5
g6
(I1
I0
tp8390
tp8391
Rp8392
ag0
(g5
g6
(I1
I0
tp8393
tp8394
Rp8395
ag0
(g5
g6
(I1
I0
tp8396
tp8397
Rp8398
ag0
(g5
g6
(I1
I0
tp8399
tp8400
Rp8401
ag0
(g5
g6
(I1
I-1
tp8402
tp8403
Rp8404
ag0
(g5
g6
(I1
I-1
tp8405
tp8406
Rp8407
ag0
(g5
g6
(I1
I0
tp8408
tp8409
Rp8410
ag0
(g5
g6
(I1
I0
tp8411
tp8412
Rp8413
ag0
(g5
g6
(I1
I0
tp8414
tp8415
Rp8416
ag0
(g5
g6
(I1
I0
tp8417
tp8418
Rp8419
ag0
(g5
g6
(I1
I0
tp8420
tp8421
Rp8422
ag0
(g5
g6
(I1
I0
tp8423
tp8424
Rp8425
ag0
(g5
g6
(I1
I0
tp8426
tp8427
Rp8428
ag0
(g5
g6
(I1
I0
tp8429
tp8430
Rp8431
ag0
(g5
g6
(I1
I0
tp8432
tp8433
Rp8434
ag0
(g5
g6
(I1
I0
tp8435
tp8436
Rp8437
ag0
(g5
g6
(I1
I0
tp8438
tp8439
Rp8440
ag0
(g5
g6
(I1
I0
tp8441
tp8442
Rp8443
ag0
(g5
g6
(I1
I0
tp8444
tp8445
Rp8446
ag0
(g5
g6
(I1
I0
tp8447
tp8448
Rp8449
ag0
(g5
g6
(I1
I0
tp8450
tp8451
Rp8452
ag0
(g5
g6
(I1
I0
tp8453
tp8454
Rp8455
ag0
(g5
g6
(I1
I0
tp8456
tp8457
Rp8458
ag0
(g5
g6
(I1
I0
tp8459
tp8460
Rp8461
ag0
(g5
g6
(I1
I0
tp8462
tp8463
Rp8464
ag0
(g5
g6
(I1
I0
tp8465
tp8466
Rp8467
ag0
(g5
g6
(I1
I-1
tp8468
tp8469
Rp8470
ag0
(g5
g6
(I1
I0
tp8471
tp8472
Rp8473
ag0
(g5
g6
(I1
I0
tp8474
tp8475
Rp8476
ag0
(g5
g6
(I1
I0
tp8477
tp8478
Rp8479
ag0
(g5
g6
(I1
I0
tp8480
tp8481
Rp8482
ag0
(g5
g6
(I1
I0
tp8483
tp8484
Rp8485
ag0
(g5
g6
(I1
I0
tp8486
tp8487
Rp8488
ag0
(g5
g6
(I1
I0
tp8489
tp8490
Rp8491
ag0
(g5
g6
(I1
I0
tp8492
tp8493
Rp8494
ag0
(g5
g6
(I1
I0
tp8495
tp8496
Rp8497
aa(lp8498
g0
(g5
g6
(I1
I0
tp8499
tp8500
Rp8501
ag0
(g5
g6
(I1
I0
tp8502
tp8503
Rp8504
ag0
(g5
g6
(I1
I0
tp8505
tp8506
Rp8507
ag0
(g5
g6
(I1
I0
tp8508
tp8509
Rp8510
ag0
(g5
g6
(I1
I0
tp8511
tp8512
Rp8513
ag0
(g5
g6
(I1
I0
tp8514
tp8515
Rp8516
ag0
(g5
g6
(I1
I0
tp8517
tp8518
Rp8519
ag0
(g5
g6
(I1
I0
tp8520
tp8521
Rp8522
ag0
(g5
g6
(I1
I0
tp8523
tp8524
Rp8525
ag0
(g5
g6
(I1
I0
tp8526
tp8527
Rp8528
ag0
(g5
g6
(I1
I-1
tp8529
tp8530
Rp8531
ag0
(g5
g6
(I1
I0
tp8532
tp8533
Rp8534
ag0
(g5
g6
(I1
I0
tp8535
tp8536
Rp8537
ag0
(g5
g6
(I1
I0
tp8538
tp8539
Rp8540
ag0
(g5
g6
(I1
I0
tp8541
tp8542
Rp8543
ag0
(g5
g6
(I1
I0
tp8544
tp8545
Rp8546
ag0
(g5
g6
(I1
I0
tp8547
tp8548
Rp8549
ag0
(g5
g6
(I1
I0
tp8550
tp8551
Rp8552
ag0
(g5
g6
(I1
I0
tp8553
tp8554
Rp8555
ag0
(g5
g6
(I1
I0
tp8556
tp8557
Rp8558
ag0
(g5
g6
(I1
I0
tp8559
tp8560
Rp8561
ag0
(g5
g6
(I1
I0
tp8562
tp8563
Rp8564
ag0
(g5
g6
(I1
I0
tp8565
tp8566
Rp8567
ag0
(g5
g6
(I1
I0
tp8568
tp8569
Rp8570
ag0
(g5
g6
(I1
I0
tp8571
tp8572
Rp8573
ag0
(g5
g6
(I1
I0
tp8574
tp8575
Rp8576
ag0
(g5
g6
(I1
I0
tp8577
tp8578
Rp8579
ag0
(g5
g6
(I1
I0
tp8580
tp8581
Rp8582
ag0
(g5
g6
(I1
I0
tp8583
tp8584
Rp8585
ag0
(g5
g6
(I1
I0
tp8586
tp8587
Rp8588
ag0
(g5
g6
(I1
I0
tp8589
tp8590
Rp8591
ag0
(g5
g6
(I1
I-1
tp8592
tp8593
Rp8594
ag0
(g5
g6
(I1
I-1
tp8595
tp8596
Rp8597
ag0
(g5
g6
(I1
I-1
tp8598
tp8599
Rp8600
ag0
(g5
g6
(I1
I-1
tp8601
tp8602
Rp8603
ag0
(g5
g6
(I1
I0
tp8604
tp8605
Rp8606
ag0
(g5
g6
(I1
I0
tp8607
tp8608
Rp8609
ag0
(g5
g6
(I1
I0
tp8610
tp8611
Rp8612
ag0
(g5
g6
(I1
I0
tp8613
tp8614
Rp8615
ag0
(g5
g6
(I1
I0
tp8616
tp8617
Rp8618
ag0
(g5
g6
(I1
I0
tp8619
tp8620
Rp8621
ag0
(g5
g6
(I1
I0
tp8622
tp8623
Rp8624
ag0
(g5
g6
(I1
I0
tp8625
tp8626
Rp8627
ag0
(g5
g6
(I1
I0
tp8628
tp8629
Rp8630
ag0
(g5
g6
(I1
I0
tp8631
tp8632
Rp8633
ag0
(g5
g6
(I1
I0
tp8634
tp8635
Rp8636
ag0
(g5
g6
(I1
I0
tp8637
tp8638
Rp8639
ag0
(g5
g6
(I1
I0
tp8640
tp8641
Rp8642
ag0
(g5
g6
(I1
I0
tp8643
tp8644
Rp8645
ag0
(g5
g6
(I1
I0
tp8646
tp8647
Rp8648
ag0
(g5
g6
(I1
I0
tp8649
tp8650
Rp8651
ag0
(g5
g6
(I1
I0
tp8652
tp8653
Rp8654
ag0
(g5
g6
(I1
I0
tp8655
tp8656
Rp8657
ag0
(g5
g6
(I1
I0
tp8658
tp8659
Rp8660
ag0
(g5
g6
(I1
I-1
tp8661
tp8662
Rp8663
ag0
(g5
g6
(I1
I0
tp8664
tp8665
Rp8666
ag0
(g5
g6
(I1
I0
tp8667
tp8668
Rp8669
ag0
(g5
g6
(I1
I0
tp8670
tp8671
Rp8672
ag0
(g5
g6
(I1
I0
tp8673
tp8674
Rp8675
ag0
(g5
g6
(I1
I0
tp8676
tp8677
Rp8678
ag0
(g5
g6
(I1
I0
tp8679
tp8680
Rp8681
ag0
(g5
g6
(I1
I0
tp8682
tp8683
Rp8684
ag0
(g5
g6
(I1
I0
tp8685
tp8686
Rp8687
ag0
(g5
g6
(I1
I0
tp8688
tp8689
Rp8690
aa(lp8691
g0
(g5
g6
(I1
I0
tp8692
tp8693
Rp8694
ag0
(g5
g6
(I1
I0
tp8695
tp8696
Rp8697
ag0
(g5
g6
(I1
I0
tp8698
tp8699
Rp8700
ag0
(g5
g6
(I1
I0
tp8701
tp8702
Rp8703
ag0
(g5
g6
(I1
I0
tp8704
tp8705
Rp8706
ag0
(g5
g6
(I1
I0
tp8707
tp8708
Rp8709
ag0
(g5
g6
(I1
I0
tp8710
tp8711
Rp8712
ag0
(g5
g6
(I1
I0
tp8713
tp8714
Rp8715
ag0
(g5
g6
(I1
I0
tp8716
tp8717
Rp8718
ag0
(g5
g6
(I1
I0
tp8719
tp8720
Rp8721
ag0
(g5
g6
(I1
I0
tp8722
tp8723
Rp8724
ag0
(g5
g6
(I1
I0
tp8725
tp8726
Rp8727
ag0
(g5
g6
(I1
I0
tp8728
tp8729
Rp8730
ag0
(g5
g6
(I1
I0
tp8731
tp8732
Rp8733
ag0
(g5
g6
(I1
I0
tp8734
tp8735
Rp8736
ag0
(g5
g6
(I1
I0
tp8737
tp8738
Rp8739
ag0
(g5
g6
(I1
I0
tp8740
tp8741
Rp8742
ag0
(g5
g6
(I1
I0
tp8743
tp8744
Rp8745
ag0
(g5
g6
(I1
I0
tp8746
tp8747
Rp8748
ag0
(g5
g6
(I1
I0
tp8749
tp8750
Rp8751
ag0
(g5
g6
(I1
I0
tp8752
tp8753
Rp8754
ag0
(g5
g6
(I1
I0
tp8755
tp8756
Rp8757
ag0
(g5
g6
(I1
I0
tp8758
tp8759
Rp8760
ag0
(g5
g6
(I1
I0
tp8761
tp8762
Rp8763
ag0
(g5
g6
(I1
I0
tp8764
tp8765
Rp8766
ag0
(g5
g6
(I1
I0
tp8767
tp8768
Rp8769
ag0
(g5
g6
(I1
I0
tp8770
tp8771
Rp8772
ag0
(g5
g6
(I1
I0
tp8773
tp8774
Rp8775
ag0
(g5
g6
(I1
I0
tp8776
tp8777
Rp8778
ag0
(g5
g6
(I1
I0
tp8779
tp8780
Rp8781
ag0
(g5
g6
(I1
I-1
tp8782
tp8783
Rp8784
ag0
(g5
g6
(I1
I-1
tp8785
tp8786
Rp8787
ag0
(g5
g6
(I1
I-1
tp8788
tp8789
Rp8790
ag0
(g5
g6
(I1
I-1
tp8791
tp8792
Rp8793
ag0
(g5
g6
(I1
I-1
tp8794
tp8795
Rp8796
ag0
(g5
g6
(I1
I0
tp8797
tp8798
Rp8799
ag0
(g5
g6
(I1
I0
tp8800
tp8801
Rp8802
ag0
(g5
g6
(I1
I0
tp8803
tp8804
Rp8805
ag0
(g5
g6
(I1
I0
tp8806
tp8807
Rp8808
ag0
(g5
g6
(I1
I0
tp8809
tp8810
Rp8811
ag0
(g5
g6
(I1
I0
tp8812
tp8813
Rp8814
ag0
(g5
g6
(I1
I0
tp8815
tp8816
Rp8817
ag0
(g5
g6
(I1
I0
tp8818
tp8819
Rp8820
ag0
(g5
g6
(I1
I0
tp8821
tp8822
Rp8823
ag0
(g5
g6
(I1
I0
tp8824
tp8825
Rp8826
ag0
(g5
g6
(I1
I0
tp8827
tp8828
Rp8829
ag0
(g5
g6
(I1
I0
tp8830
tp8831
Rp8832
ag0
(g5
g6
(I1
I0
tp8833
tp8834
Rp8835
ag0
(g5
g6
(I1
I0
tp8836
tp8837
Rp8838
ag0
(g5
g6
(I1
I0
tp8839
tp8840
Rp8841
ag0
(g5
g6
(I1
I0
tp8842
tp8843
Rp8844
ag0
(g5
g6
(I1
I0
tp8845
tp8846
Rp8847
ag0
(g5
g6
(I1
I0
tp8848
tp8849
Rp8850
ag0
(g5
g6
(I1
I0
tp8851
tp8852
Rp8853
ag0
(g5
g6
(I1
I0
tp8854
tp8855
Rp8856
ag0
(g5
g6
(I1
I0
tp8857
tp8858
Rp8859
ag0
(g5
g6
(I1
I0
tp8860
tp8861
Rp8862
ag0
(g5
g6
(I1
I0
tp8863
tp8864
Rp8865
ag0
(g5
g6
(I1
I0
tp8866
tp8867
Rp8868
ag0
(g5
g6
(I1
I0
tp8869
tp8870
Rp8871
ag0
(g5
g6
(I1
I0
tp8872
tp8873
Rp8874
ag0
(g5
g6
(I1
I0
tp8875
tp8876
Rp8877
ag0
(g5
g6
(I1
I0
tp8878
tp8879
Rp8880
ag0
(g5
g6
(I1
I0
tp8881
tp8882
Rp8883
aa(lp8884
g0
(g5
g6
(I1
I0
tp8885
tp8886
Rp8887
ag0
(g5
g6
(I1
I0
tp8888
tp8889
Rp8890
ag0
(g5
g6
(I1
I0
tp8891
tp8892
Rp8893
ag0
(g5
g6
(I1
I0
tp8894
tp8895
Rp8896
ag0
(g5
g6
(I1
I0
tp8897
tp8898
Rp8899
ag0
(g5
g6
(I1
I0
tp8900
tp8901
Rp8902
ag0
(g5
g6
(I1
I0
tp8903
tp8904
Rp8905
ag0
(g5
g6
(I1
I0
tp8906
tp8907
Rp8908
ag0
(g5
g6
(I1
I0
tp8909
tp8910
Rp8911
ag0
(g5
g6
(I1
I0
tp8912
tp8913
Rp8914
ag0
(g5
g6
(I1
I0
tp8915
tp8916
Rp8917
ag0
(g5
g6
(I1
I0
tp8918
tp8919
Rp8920
ag0
(g5
g6
(I1
I0
tp8921
tp8922
Rp8923
ag0
(g5
g6
(I1
I0
tp8924
tp8925
Rp8926
ag0
(g5
g6
(I1
I0
tp8927
tp8928
Rp8929
ag0
(g5
g6
(I1
I0
tp8930
tp8931
Rp8932
ag0
(g5
g6
(I1
I0
tp8933
tp8934
Rp8935
ag0
(g5
g6
(I1
I0
tp8936
tp8937
Rp8938
ag0
(g5
g6
(I1
I0
tp8939
tp8940
Rp8941
ag0
(g5
g6
(I1
I0
tp8942
tp8943
Rp8944
ag0
(g5
g6
(I1
I0
tp8945
tp8946
Rp8947
ag0
(g5
g6
(I1
I0
tp8948
tp8949
Rp8950
ag0
(g5
g6
(I1
I0
tp8951
tp8952
Rp8953
ag0
(g5
g6
(I1
I0
tp8954
tp8955
Rp8956
ag0
(g5
g6
(I1
I0
tp8957
tp8958
Rp8959
ag0
(g5
g6
(I1
I0
tp8960
tp8961
Rp8962
ag0
(g5
g6
(I1
I0
tp8963
tp8964
Rp8965
ag0
(g5
g6
(I1
I0
tp8966
tp8967
Rp8968
ag0
(g5
g6
(I1
I0
tp8969
tp8970
Rp8971
ag0
(g5
g6
(I1
I-1
tp8972
tp8973
Rp8974
ag0
(g5
g6
(I1
I-1
tp8975
tp8976
Rp8977
ag0
(g5
g6
(I1
I-1
tp8978
tp8979
Rp8980
ag0
(g5
g6
(I1
I-1
tp8981
tp8982
Rp8983
ag0
(g5
g6
(I1
I0
tp8984
tp8985
Rp8986
ag0
(g5
g6
(I1
I-1
tp8987
tp8988
Rp8989
ag0
(g5
g6
(I1
I-1
tp8990
tp8991
Rp8992
ag0
(g5
g6
(I1
I0
tp8993
tp8994
Rp8995
ag0
(g5
g6
(I1
I0
tp8996
tp8997
Rp8998
ag0
(g5
g6
(I1
I0
tp8999
tp9000
Rp9001
ag0
(g5
g6
(I1
I0
tp9002
tp9003
Rp9004
ag0
(g5
g6
(I1
I0
tp9005
tp9006
Rp9007
ag0
(g5
g6
(I1
I0
tp9008
tp9009
Rp9010
ag0
(g5
g6
(I1
I0
tp9011
tp9012
Rp9013
ag0
(g5
g6
(I1
I0
tp9014
tp9015
Rp9016
ag0
(g5
g6
(I1
I0
tp9017
tp9018
Rp9019
ag0
(g5
g6
(I1
I0
tp9020
tp9021
Rp9022
ag0
(g5
g6
(I1
I0
tp9023
tp9024
Rp9025
ag0
(g5
g6
(I1
I0
tp9026
tp9027
Rp9028
ag0
(g5
g6
(I1
I0
tp9029
tp9030
Rp9031
ag0
(g5
g6
(I1
I0
tp9032
tp9033
Rp9034
ag0
(g5
g6
(I1
I0
tp9035
tp9036
Rp9037
ag0
(g5
g6
(I1
I0
tp9038
tp9039
Rp9040
ag0
(g5
g6
(I1
I0
tp9041
tp9042
Rp9043
ag0
(g5
g6
(I1
I0
tp9044
tp9045
Rp9046
ag0
(g5
g6
(I1
I0
tp9047
tp9048
Rp9049
ag0
(g5
g6
(I1
I0
tp9050
tp9051
Rp9052
ag0
(g5
g6
(I1
I0
tp9053
tp9054
Rp9055
ag0
(g5
g6
(I1
I0
tp9056
tp9057
Rp9058
ag0
(g5
g6
(I1
I0
tp9059
tp9060
Rp9061
ag0
(g5
g6
(I1
I0
tp9062
tp9063
Rp9064
ag0
(g5
g6
(I1
I0
tp9065
tp9066
Rp9067
ag0
(g5
g6
(I1
I0
tp9068
tp9069
Rp9070
ag0
(g5
g6
(I1
I0
tp9071
tp9072
Rp9073
ag0
(g5
g6
(I1
I0
tp9074
tp9075
Rp9076
aa(lp9077
g0
(g5
g6
(I1
I0
tp9078
tp9079
Rp9080
ag0
(g5
g6
(I1
I0
tp9081
tp9082
Rp9083
ag0
(g5
g6
(I1
I0
tp9084
tp9085
Rp9086
ag0
(g5
g6
(I1
I0
tp9087
tp9088
Rp9089
ag0
(g5
g6
(I1
I0
tp9090
tp9091
Rp9092
ag0
(g5
g6
(I1
I0
tp9093
tp9094
Rp9095
ag0
(g5
g6
(I1
I0
tp9096
tp9097
Rp9098
ag0
(g5
g6
(I1
I0
tp9099
tp9100
Rp9101
ag0
(g5
g6
(I1
I0
tp9102
tp9103
Rp9104
ag0
(g5
g6
(I1
I0
tp9105
tp9106
Rp9107
ag0
(g5
g6
(I1
I0
tp9108
tp9109
Rp9110
ag0
(g5
g6
(I1
I0
tp9111
tp9112
Rp9113
ag0
(g5
g6
(I1
I0
tp9114
tp9115
Rp9116
ag0
(g5
g6
(I1
I0
tp9117
tp9118
Rp9119
ag0
(g5
g6
(I1
I0
tp9120
tp9121
Rp9122
ag0
(g5
g6
(I1
I0
tp9123
tp9124
Rp9125
ag0
(g5
g6
(I1
I0
tp9126
tp9127
Rp9128
ag0
(g5
g6
(I1
I0
tp9129
tp9130
Rp9131
ag0
(g5
g6
(I1
I0
tp9132
tp9133
Rp9134
ag0
(g5
g6
(I1
I0
tp9135
tp9136
Rp9137
ag0
(g5
g6
(I1
I0
tp9138
tp9139
Rp9140
ag0
(g5
g6
(I1
I0
tp9141
tp9142
Rp9143
ag0
(g5
g6
(I1
I0
tp9144
tp9145
Rp9146
ag0
(g5
g6
(I1
I0
tp9147
tp9148
Rp9149
ag0
(g5
g6
(I1
I0
tp9150
tp9151
Rp9152
ag0
(g5
g6
(I1
I0
tp9153
tp9154
Rp9155
ag0
(g5
g6
(I1
I0
tp9156
tp9157
Rp9158
ag0
(g5
g6
(I1
I0
tp9159
tp9160
Rp9161
ag0
(g5
g6
(I1
I0
tp9162
tp9163
Rp9164
ag0
(g5
g6
(I1
I0
tp9165
tp9166
Rp9167
ag0
(g5
g6
(I1
I-1
tp9168
tp9169
Rp9170
ag0
(g5
g6
(I1
I-1
tp9171
tp9172
Rp9173
ag0
(g5
g6
(I1
I-1
tp9174
tp9175
Rp9176
ag0
(g5
g6
(I1
I-1
tp9177
tp9178
Rp9179
ag0
(g5
g6
(I1
I0
tp9180
tp9181
Rp9182
ag0
(g5
g6
(I1
I-1
tp9183
tp9184
Rp9185
ag0
(g5
g6
(I1
I-1
tp9186
tp9187
Rp9188
ag0
(g5
g6
(I1
I-1
tp9189
tp9190
Rp9191
ag0
(g5
g6
(I1
I0
tp9192
tp9193
Rp9194
ag0
(g5
g6
(I1
I0
tp9195
tp9196
Rp9197
ag0
(g5
g6
(I1
I0
tp9198
tp9199
Rp9200
ag0
(g5
g6
(I1
I0
tp9201
tp9202
Rp9203
ag0
(g5
g6
(I1
I0
tp9204
tp9205
Rp9206
ag0
(g5
g6
(I1
I0
tp9207
tp9208
Rp9209
ag0
(g5
g6
(I1
I0
tp9210
tp9211
Rp9212
ag0
(g5
g6
(I1
I0
tp9213
tp9214
Rp9215
ag0
(g5
g6
(I1
I0
tp9216
tp9217
Rp9218
ag0
(g5
g6
(I1
I0
tp9219
tp9220
Rp9221
ag0
(g5
g6
(I1
I0
tp9222
tp9223
Rp9224
ag0
(g5
g6
(I1
I0
tp9225
tp9226
Rp9227
ag0
(g5
g6
(I1
I0
tp9228
tp9229
Rp9230
ag0
(g5
g6
(I1
I0
tp9231
tp9232
Rp9233
ag0
(g5
g6
(I1
I0
tp9234
tp9235
Rp9236
ag0
(g5
g6
(I1
I0
tp9237
tp9238
Rp9239
ag0
(g5
g6
(I1
I0
tp9240
tp9241
Rp9242
ag0
(g5
g6
(I1
I0
tp9243
tp9244
Rp9245
ag0
(g5
g6
(I1
I0
tp9246
tp9247
Rp9248
ag0
(g5
g6
(I1
I0
tp9249
tp9250
Rp9251
ag0
(g5
g6
(I1
I0
tp9252
tp9253
Rp9254
ag0
(g5
g6
(I1
I0
tp9255
tp9256
Rp9257
ag0
(g5
g6
(I1
I0
tp9258
tp9259
Rp9260
ag0
(g5
g6
(I1
I0
tp9261
tp9262
Rp9263
ag0
(g5
g6
(I1
I0
tp9264
tp9265
Rp9266
ag0
(g5
g6
(I1
I0
tp9267
tp9268
Rp9269
aa(lp9270
g0
(g5
g6
(I1
I0
tp9271
tp9272
Rp9273
ag0
(g5
g6
(I1
I0
tp9274
tp9275
Rp9276
ag0
(g5
g6
(I1
I0
tp9277
tp9278
Rp9279
ag0
(g5
g6
(I1
I0
tp9280
tp9281
Rp9282
ag0
(g5
g6
(I1
I0
tp9283
tp9284
Rp9285
ag0
(g5
g6
(I1
I0
tp9286
tp9287
Rp9288
ag0
(g5
g6
(I1
I0
tp9289
tp9290
Rp9291
ag0
(g5
g6
(I1
I0
tp9292
tp9293
Rp9294
ag0
(g5
g6
(I1
I0
tp9295
tp9296
Rp9297
ag0
(g5
g6
(I1
I0
tp9298
tp9299
Rp9300
ag0
(g5
g6
(I1
I0
tp9301
tp9302
Rp9303
ag0
(g5
g6
(I1
I0
tp9304
tp9305
Rp9306
ag0
(g5
g6
(I1
I0
tp9307
tp9308
Rp9309
ag0
(g5
g6
(I1
I0
tp9310
tp9311
Rp9312
ag0
(g5
g6
(I1
I0
tp9313
tp9314
Rp9315
ag0
(g5
g6
(I1
I0
tp9316
tp9317
Rp9318
ag0
(g5
g6
(I1
I0
tp9319
tp9320
Rp9321
ag0
(g5
g6
(I1
I0
tp9322
tp9323
Rp9324
ag0
(g5
g6
(I1
I0
tp9325
tp9326
Rp9327
ag0
(g5
g6
(I1
I0
tp9328
tp9329
Rp9330
ag0
(g5
g6
(I1
I0
tp9331
tp9332
Rp9333
ag0
(g5
g6
(I1
I0
tp9334
tp9335
Rp9336
ag0
(g5
g6
(I1
I0
tp9337
tp9338
Rp9339
ag0
(g5
g6
(I1
I0
tp9340
tp9341
Rp9342
ag0
(g5
g6
(I1
I0
tp9343
tp9344
Rp9345
ag0
(g5
g6
(I1
I0
tp9346
tp9347
Rp9348
ag0
(g5
g6
(I1
I0
tp9349
tp9350
Rp9351
ag0
(g5
g6
(I1
I-1
tp9352
tp9353
Rp9354
ag0
(g5
g6
(I1
I-1
tp9355
tp9356
Rp9357
ag0
(g5
g6
(I1
I0
tp9358
tp9359
Rp9360
ag0
(g5
g6
(I1
I-1
tp9361
tp9362
Rp9363
ag0
(g5
g6
(I1
I-1
tp9364
tp9365
Rp9366
ag0
(g5
g6
(I1
I0
tp9367
tp9368
Rp9369
ag0
(g5
g6
(I1
I-1
tp9370
tp9371
Rp9372
ag0
(g5
g6
(I1
I-1
tp9373
tp9374
Rp9375
ag0
(g5
g6
(I1
I-1
tp9376
tp9377
Rp9378
ag0
(g5
g6
(I1
I0
tp9379
tp9380
Rp9381
ag0
(g5
g6
(I1
I-1
tp9382
tp9383
Rp9384
ag0
(g5
g6
(I1
I0
tp9385
tp9386
Rp9387
ag0
(g5
g6
(I1
I0
tp9388
tp9389
Rp9390
ag0
(g5
g6
(I1
I0
tp9391
tp9392
Rp9393
ag0
(g5
g6
(I1
I0
tp9394
tp9395
Rp9396
ag0
(g5
g6
(I1
I0
tp9397
tp9398
Rp9399
ag0
(g5
g6
(I1
I0
tp9400
tp9401
Rp9402
ag0
(g5
g6
(I1
I0
tp9403
tp9404
Rp9405
ag0
(g5
g6
(I1
I0
tp9406
tp9407
Rp9408
ag0
(g5
g6
(I1
I0
tp9409
tp9410
Rp9411
ag0
(g5
g6
(I1
I0
tp9412
tp9413
Rp9414
ag0
(g5
g6
(I1
I0
tp9415
tp9416
Rp9417
ag0
(g5
g6
(I1
I0
tp9418
tp9419
Rp9420
ag0
(g5
g6
(I1
I0
tp9421
tp9422
Rp9423
ag0
(g5
g6
(I1
I0
tp9424
tp9425
Rp9426
ag0
(g5
g6
(I1
I0
tp9427
tp9428
Rp9429
ag0
(g5
g6
(I1
I0
tp9430
tp9431
Rp9432
ag0
(g5
g6
(I1
I0
tp9433
tp9434
Rp9435
ag0
(g5
g6
(I1
I0
tp9436
tp9437
Rp9438
ag0
(g5
g6
(I1
I0
tp9439
tp9440
Rp9441
ag0
(g5
g6
(I1
I0
tp9442
tp9443
Rp9444
ag0
(g5
g6
(I1
I0
tp9445
tp9446
Rp9447
ag0
(g5
g6
(I1
I0
tp9448
tp9449
Rp9450
ag0
(g5
g6
(I1
I0
tp9451
tp9452
Rp9453
ag0
(g5
g6
(I1
I0
tp9454
tp9455
Rp9456
ag0
(g5
g6
(I1
I0
tp9457
tp9458
Rp9459
ag0
(g5
g6
(I1
I0
tp9460
tp9461
Rp9462
aa(lp9463
g0
(g5
g6
(I1
I0
tp9464
tp9465
Rp9466
ag0
(g5
g6
(I1
I0
tp9467
tp9468
Rp9469
ag0
(g5
g6
(I1
I0
tp9470
tp9471
Rp9472
ag0
(g5
g6
(I1
I0
tp9473
tp9474
Rp9475
ag0
(g5
g6
(I1
I0
tp9476
tp9477
Rp9478
ag0
(g5
g6
(I1
I0
tp9479
tp9480
Rp9481
ag0
(g5
g6
(I1
I0
tp9482
tp9483
Rp9484
ag0
(g5
g6
(I1
I0
tp9485
tp9486
Rp9487
ag0
(g5
g6
(I1
I0
tp9488
tp9489
Rp9490
ag0
(g5
g6
(I1
I0
tp9491
tp9492
Rp9493
ag0
(g5
g6
(I1
I0
tp9494
tp9495
Rp9496
ag0
(g5
g6
(I1
I0
tp9497
tp9498
Rp9499
ag0
(g5
g6
(I1
I0
tp9500
tp9501
Rp9502
ag0
(g5
g6
(I1
I0
tp9503
tp9504
Rp9505
ag0
(g5
g6
(I1
I0
tp9506
tp9507
Rp9508
ag0
(g5
g6
(I1
I0
tp9509
tp9510
Rp9511
ag0
(g5
g6
(I1
I0
tp9512
tp9513
Rp9514
ag0
(g5
g6
(I1
I0
tp9515
tp9516
Rp9517
ag0
(g5
g6
(I1
I0
tp9518
tp9519
Rp9520
ag0
(g5
g6
(I1
I0
tp9521
tp9522
Rp9523
ag0
(g5
g6
(I1
I0
tp9524
tp9525
Rp9526
ag0
(g5
g6
(I1
I0
tp9527
tp9528
Rp9529
ag0
(g5
g6
(I1
I0
tp9530
tp9531
Rp9532
ag0
(g5
g6
(I1
I0
tp9533
tp9534
Rp9535
ag0
(g5
g6
(I1
I0
tp9536
tp9537
Rp9538
ag0
(g5
g6
(I1
I0
tp9539
tp9540
Rp9541
ag0
(g5
g6
(I1
I-1
tp9542
tp9543
Rp9544
ag0
(g5
g6
(I1
I-1
tp9545
tp9546
Rp9547
ag0
(g5
g6
(I1
I-1
tp9548
tp9549
Rp9550
ag0
(g5
g6
(I1
I-1
tp9551
tp9552
Rp9553
ag0
(g5
g6
(I1
I0
tp9554
tp9555
Rp9556
ag0
(g5
g6
(I1
I-1
tp9557
tp9558
Rp9559
ag0
(g5
g6
(I1
I-1
tp9560
tp9561
Rp9562
ag0
(g5
g6
(I1
I0
tp9563
tp9564
Rp9565
ag0
(g5
g6
(I1
I-1
tp9566
tp9567
Rp9568
ag0
(g5
g6
(I1
I0
tp9569
tp9570
Rp9571
ag0
(g5
g6
(I1
I-1
tp9572
tp9573
Rp9574
ag0
(g5
g6
(I1
I-1
tp9575
tp9576
Rp9577
ag0
(g5
g6
(I1
I-1
tp9578
tp9579
Rp9580
ag0
(g5
g6
(I1
I0
tp9581
tp9582
Rp9583
ag0
(g5
g6
(I1
I0
tp9584
tp9585
Rp9586
ag0
(g5
g6
(I1
I0
tp9587
tp9588
Rp9589
ag0
(g5
g6
(I1
I0
tp9590
tp9591
Rp9592
ag0
(g5
g6
(I1
I0
tp9593
tp9594
Rp9595
ag0
(g5
g6
(I1
I0
tp9596
tp9597
Rp9598
ag0
(g5
g6
(I1
I0
tp9599
tp9600
Rp9601
ag0
(g5
g6
(I1
I0
tp9602
tp9603
Rp9604
ag0
(g5
g6
(I1
I0
tp9605
tp9606
Rp9607
ag0
(g5
g6
(I1
I0
tp9608
tp9609
Rp9610
ag0
(g5
g6
(I1
I0
tp9611
tp9612
Rp9613
ag0
(g5
g6
(I1
I0
tp9614
tp9615
Rp9616
ag0
(g5
g6
(I1
I0
tp9617
tp9618
Rp9619
ag0
(g5
g6
(I1
I0
tp9620
tp9621
Rp9622
ag0
(g5
g6
(I1
I0
tp9623
tp9624
Rp9625
ag0
(g5
g6
(I1
I0
tp9626
tp9627
Rp9628
ag0
(g5
g6
(I1
I0
tp9629
tp9630
Rp9631
ag0
(g5
g6
(I1
I0
tp9632
tp9633
Rp9634
ag0
(g5
g6
(I1
I0
tp9635
tp9636
Rp9637
ag0
(g5
g6
(I1
I0
tp9638
tp9639
Rp9640
ag0
(g5
g6
(I1
I0
tp9641
tp9642
Rp9643
ag0
(g5
g6
(I1
I0
tp9644
tp9645
Rp9646
ag0
(g5
g6
(I1
I0
tp9647
tp9648
Rp9649
ag0
(g5
g6
(I1
I0
tp9650
tp9651
Rp9652
ag0
(g5
g6
(I1
I0
tp9653
tp9654
Rp9655
aa(lp9656
g0
(g5
g6
(I1
I0
tp9657
tp9658
Rp9659
ag0
(g5
g6
(I1
I0
tp9660
tp9661
Rp9662
ag0
(g5
g6
(I1
I0
tp9663
tp9664
Rp9665
ag0
(g5
g6
(I1
I0
tp9666
tp9667
Rp9668
ag0
(g5
g6
(I1
I0
tp9669
tp9670
Rp9671
ag0
(g5
g6
(I1
I0
tp9672
tp9673
Rp9674
ag0
(g5
g6
(I1
I0
tp9675
tp9676
Rp9677
ag0
(g5
g6
(I1
I0
tp9678
tp9679
Rp9680
ag0
(g5
g6
(I1
I-22
tp9681
tp9682
Rp9683
ag0
(g5
g6
(I1
I-22
tp9684
tp9685
Rp9686
ag0
(g5
g6
(I1
I-22
tp9687
tp9688
Rp9689
ag0
(g5
g6
(I1
I-22
tp9690
tp9691
Rp9692
ag0
(g5
g6
(I1
I-22
tp9693
tp9694
Rp9695
ag0
(g5
g6
(I1
I0
tp9696
tp9697
Rp9698
ag0
(g5
g6
(I1
I0
tp9699
tp9700
Rp9701
ag0
(g5
g6
(I1
I0
tp9702
tp9703
Rp9704
ag0
(g5
g6
(I1
I0
tp9705
tp9706
Rp9707
ag0
(g5
g6
(I1
I0
tp9708
tp9709
Rp9710
ag0
(g5
g6
(I1
I0
tp9711
tp9712
Rp9713
ag0
(g5
g6
(I1
I0
tp9714
tp9715
Rp9716
ag0
(g5
g6
(I1
I0
tp9717
tp9718
Rp9719
ag0
(g5
g6
(I1
I0
tp9720
tp9721
Rp9722
ag0
(g5
g6
(I1
I0
tp9723
tp9724
Rp9725
ag0
(g5
g6
(I1
I0
tp9726
tp9727
Rp9728
ag0
(g5
g6
(I1
I0
tp9729
tp9730
Rp9731
ag0
(g5
g6
(I1
I0
tp9732
tp9733
Rp9734
ag0
(g5
g6
(I1
I-1
tp9735
tp9736
Rp9737
ag0
(g5
g6
(I1
I-1
tp9738
tp9739
Rp9740
ag0
(g5
g6
(I1
I-1
tp9741
tp9742
Rp9743
ag0
(g5
g6
(I1
I0
tp9744
tp9745
Rp9746
ag0
(g5
g6
(I1
I-1
tp9747
tp9748
Rp9749
ag0
(g5
g6
(I1
I0
tp9750
tp9751
Rp9752
ag0
(g5
g6
(I1
I-1
tp9753
tp9754
Rp9755
ag0
(g5
g6
(I1
I0
tp9756
tp9757
Rp9758
ag0
(g5
g6
(I1
I-1
tp9759
tp9760
Rp9761
ag0
(g5
g6
(I1
I-1
tp9762
tp9763
Rp9764
ag0
(g5
g6
(I1
I-1
tp9765
tp9766
Rp9767
ag0
(g5
g6
(I1
I0
tp9768
tp9769
Rp9770
ag0
(g5
g6
(I1
I-1
tp9771
tp9772
Rp9773
ag0
(g5
g6
(I1
I-1
tp9774
tp9775
Rp9776
ag0
(g5
g6
(I1
I-1
tp9777
tp9778
Rp9779
ag0
(g5
g6
(I1
I0
tp9780
tp9781
Rp9782
ag0
(g5
g6
(I1
I0
tp9783
tp9784
Rp9785
ag0
(g5
g6
(I1
I0
tp9786
tp9787
Rp9788
ag0
(g5
g6
(I1
I0
tp9789
tp9790
Rp9791
ag0
(g5
g6
(I1
I0
tp9792
tp9793
Rp9794
ag0
(g5
g6
(I1
I0
tp9795
tp9796
Rp9797
ag0
(g5
g6
(I1
I0
tp9798
tp9799
Rp9800
ag0
(g5
g6
(I1
I0
tp9801
tp9802
Rp9803
ag0
(g5
g6
(I1
I0
tp9804
tp9805
Rp9806
ag0
(g5
g6
(I1
I0
tp9807
tp9808
Rp9809
ag0
(g5
g6
(I1
I-22
tp9810
tp9811
Rp9812
ag0
(g5
g6
(I1
I-22
tp9813
tp9814
Rp9815
ag0
(g5
g6
(I1
I-22
tp9816
tp9817
Rp9818
ag0
(g5
g6
(I1
I-22
tp9819
tp9820
Rp9821
ag0
(g5
g6
(I1
I-22
tp9822
tp9823
Rp9824
ag0
(g5
g6
(I1
I0
tp9825
tp9826
Rp9827
ag0
(g5
g6
(I1
I0
tp9828
tp9829
Rp9830
ag0
(g5
g6
(I1
I0
tp9831
tp9832
Rp9833
ag0
(g5
g6
(I1
I0
tp9834
tp9835
Rp9836
ag0
(g5
g6
(I1
I0
tp9837
tp9838
Rp9839
ag0
(g5
g6
(I1
I0
tp9840
tp9841
Rp9842
ag0
(g5
g6
(I1
I0
tp9843
tp9844
Rp9845
ag0
(g5
g6
(I1
I0
tp9846
tp9847
Rp9848
aa(lp9849
g0
(g5
g6
(I1
I0
tp9850
tp9851
Rp9852
ag0
(g5
g6
(I1
I0
tp9853
tp9854
Rp9855
ag0
(g5
g6
(I1
I0
tp9856
tp9857
Rp9858
ag0
(g5
g6
(I1
I0
tp9859
tp9860
Rp9861
ag0
(g5
g6
(I1
I0
tp9862
tp9863
Rp9864
ag0
(g5
g6
(I1
I0
tp9865
tp9866
Rp9867
ag0
(g5
g6
(I1
I0
tp9868
tp9869
Rp9870
ag0
(g5
g6
(I1
I0
tp9871
tp9872
Rp9873
ag0
(g5
g6
(I1
I0
tp9874
tp9875
Rp9876
ag0
(g5
g6
(I1
I0
tp9877
tp9878
Rp9879
ag0
(g5
g6
(I1
I0
tp9880
tp9881
Rp9882
ag0
(g5
g6
(I1
I0
tp9883
tp9884
Rp9885
ag0
(g5
g6
(I1
I0
tp9886
tp9887
Rp9888
ag0
(g5
g6
(I1
I0
tp9889
tp9890
Rp9891
ag0
(g5
g6
(I1
I0
tp9892
tp9893
Rp9894
ag0
(g5
g6
(I1
I0
tp9895
tp9896
Rp9897
ag0
(g5
g6
(I1
I0
tp9898
tp9899
Rp9900
ag0
(g5
g6
(I1
I0
tp9901
tp9902
Rp9903
ag0
(g5
g6
(I1
I0
tp9904
tp9905
Rp9906
ag0
(g5
g6
(I1
I0
tp9907
tp9908
Rp9909
ag0
(g5
g6
(I1
I0
tp9910
tp9911
Rp9912
ag0
(g5
g6
(I1
I0
tp9913
tp9914
Rp9915
ag0
(g5
g6
(I1
I0
tp9916
tp9917
Rp9918
ag0
(g5
g6
(I1
I0
tp9919
tp9920
Rp9921
ag0
(g5
g6
(I1
I-1
tp9922
tp9923
Rp9924
ag0
(g5
g6
(I1
I0
tp9925
tp9926
Rp9927
ag0
(g5
g6
(I1
I-1
tp9928
tp9929
Rp9930
ag0
(g5
g6
(I1
I-1
tp9931
tp9932
Rp9933
ag0
(g5
g6
(I1
I-1
tp9934
tp9935
Rp9936
ag0
(g5
g6
(I1
I-1
tp9937
tp9938
Rp9939
ag0
(g5
g6
(I1
I-1
tp9940
tp9941
Rp9942
ag0
(g5
g6
(I1
I-1
tp9943
tp9944
Rp9945
ag0
(g5
g6
(I1
I-1
tp9946
tp9947
Rp9948
ag0
(g5
g6
(I1
I0
tp9949
tp9950
Rp9951
ag0
(g5
g6
(I1
I-1
tp9952
tp9953
Rp9954
ag0
(g5
g6
(I1
I0
tp9955
tp9956
Rp9957
ag0
(g5
g6
(I1
I-1
tp9958
tp9959
Rp9960
ag0
(g5
g6
(I1
I-1
tp9961
tp9962
Rp9963
ag0
(g5
g6
(I1
I-1
tp9964
tp9965
Rp9966
ag0
(g5
g6
(I1
I-1
tp9967
tp9968
Rp9969
ag0
(g5
g6
(I1
I-1
tp9970
tp9971
Rp9972
ag0
(g5
g6
(I1
I0
tp9973
tp9974
Rp9975
ag0
(g5
g6
(I1
I0
tp9976
tp9977
Rp9978
ag0
(g5
g6
(I1
I0
tp9979
tp9980
Rp9981
ag0
(g5
g6
(I1
I0
tp9982
tp9983
Rp9984
ag0
(g5
g6
(I1
I0
tp9985
tp9986
Rp9987
ag0
(g5
g6
(I1
I0
tp9988
tp9989
Rp9990
ag0
(g5
g6
(I1
I0
tp9991
tp9992
Rp9993
ag0
(g5
g6
(I1
I0
tp9994
tp9995
Rp9996
ag0
(g5
g6
(I1
I0
tp9997
tp9998
Rp9999
ag0
(g5
g6
(I1
I0
tp10000
tp10001
Rp10002
ag0
(g5
g6
(I1
I0
tp10003
tp10004
Rp10005
ag0
(g5
g6
(I1
I0
tp10006
tp10007
Rp10008
ag0
(g5
g6
(I1
I0
tp10009
tp10010
Rp10011
ag0
(g5
g6
(I1
I0
tp10012
tp10013
Rp10014
ag0
(g5
g6
(I1
I0
tp10015
tp10016
Rp10017
ag0
(g5
g6
(I1
I0
tp10018
tp10019
Rp10020
ag0
(g5
g6
(I1
I0
tp10021
tp10022
Rp10023
ag0
(g5
g6
(I1
I0
tp10024
tp10025
Rp10026
ag0
(g5
g6
(I1
I0
tp10027
tp10028
Rp10029
ag0
(g5
g6
(I1
I0
tp10030
tp10031
Rp10032
ag0
(g5
g6
(I1
I0
tp10033
tp10034
Rp10035
ag0
(g5
g6
(I1
I0
tp10036
tp10037
Rp10038
ag0
(g5
g6
(I1
I0
tp10039
tp10040
Rp10041
aa(lp10042
g0
(g5
g6
(I1
I0
tp10043
tp10044
Rp10045
ag0
(g5
g6
(I1
I0
tp10046
tp10047
Rp10048
ag0
(g5
g6
(I1
I0
tp10049
tp10050
Rp10051
ag0
(g5
g6
(I1
I0
tp10052
tp10053
Rp10054
ag0
(g5
g6
(I1
I0
tp10055
tp10056
Rp10057
ag0
(g5
g6
(I1
I0
tp10058
tp10059
Rp10060
ag0
(g5
g6
(I1
I0
tp10061
tp10062
Rp10063
ag0
(g5
g6
(I1
I0
tp10064
tp10065
Rp10066
ag0
(g5
g6
(I1
I0
tp10067
tp10068
Rp10069
ag0
(g5
g6
(I1
I0
tp10070
tp10071
Rp10072
ag0
(g5
g6
(I1
I0
tp10073
tp10074
Rp10075
ag0
(g5
g6
(I1
I0
tp10076
tp10077
Rp10078
ag0
(g5
g6
(I1
I0
tp10079
tp10080
Rp10081
ag0
(g5
g6
(I1
I0
tp10082
tp10083
Rp10084
ag0
(g5
g6
(I1
I0
tp10085
tp10086
Rp10087
ag0
(g5
g6
(I1
I0
tp10088
tp10089
Rp10090
ag0
(g5
g6
(I1
I0
tp10091
tp10092
Rp10093
ag0
(g5
g6
(I1
I0
tp10094
tp10095
Rp10096
ag0
(g5
g6
(I1
I0
tp10097
tp10098
Rp10099
ag0
(g5
g6
(I1
I0
tp10100
tp10101
Rp10102
ag0
(g5
g6
(I1
I0
tp10103
tp10104
Rp10105
ag0
(g5
g6
(I1
I0
tp10106
tp10107
Rp10108
ag0
(g5
g6
(I1
I0
tp10109
tp10110
Rp10111
ag0
(g5
g6
(I1
I0
tp10112
tp10113
Rp10114
ag0
(g5
g6
(I1
I0
tp10115
tp10116
Rp10117
ag0
(g5
g6
(I1
I0
tp10118
tp10119
Rp10120
ag0
(g5
g6
(I1
I-1
tp10121
tp10122
Rp10123
ag0
(g5
g6
(I1
I-1
tp10124
tp10125
Rp10126
ag0
(g5
g6
(I1
I0
tp10127
tp10128
Rp10129
ag0
(g5
g6
(I1
I-1
tp10130
tp10131
Rp10132
ag0
(g5
g6
(I1
I-1
tp10133
tp10134
Rp10135
ag0
(g5
g6
(I1
I-1
tp10136
tp10137
Rp10138
ag0
(g5
g6
(I1
I-1
tp10139
tp10140
Rp10141
ag0
(g5
g6
(I1
I0
tp10142
tp10143
Rp10144
ag0
(g5
g6
(I1
I-1
tp10145
tp10146
Rp10147
ag0
(g5
g6
(I1
I-1
tp10148
tp10149
Rp10150
ag0
(g5
g6
(I1
I-1
tp10151
tp10152
Rp10153
ag0
(g5
g6
(I1
I-1
tp10154
tp10155
Rp10156
ag0
(g5
g6
(I1
I0
tp10157
tp10158
Rp10159
ag0
(g5
g6
(I1
I-1
tp10160
tp10161
Rp10162
ag0
(g5
g6
(I1
I-1
tp10163
tp10164
Rp10165
ag0
(g5
g6
(I1
I-1
tp10166
tp10167
Rp10168
ag0
(g5
g6
(I1
I-1
tp10169
tp10170
Rp10171
ag0
(g5
g6
(I1
I0
tp10172
tp10173
Rp10174
ag0
(g5
g6
(I1
I0
tp10175
tp10176
Rp10177
ag0
(g5
g6
(I1
I0
tp10178
tp10179
Rp10180
ag0
(g5
g6
(I1
I0
tp10181
tp10182
Rp10183
ag0
(g5
g6
(I1
I0
tp10184
tp10185
Rp10186
ag0
(g5
g6
(I1
I0
tp10187
tp10188
Rp10189
ag0
(g5
g6
(I1
I0
tp10190
tp10191
Rp10192
ag0
(g5
g6
(I1
I0
tp10193
tp10194
Rp10195
ag0
(g5
g6
(I1
I0
tp10196
tp10197
Rp10198
ag0
(g5
g6
(I1
I0
tp10199
tp10200
Rp10201
ag0
(g5
g6
(I1
I0
tp10202
tp10203
Rp10204
ag0
(g5
g6
(I1
I0
tp10205
tp10206
Rp10207
ag0
(g5
g6
(I1
I0
tp10208
tp10209
Rp10210
ag0
(g5
g6
(I1
I0
tp10211
tp10212
Rp10213
ag0
(g5
g6
(I1
I0
tp10214
tp10215
Rp10216
ag0
(g5
g6
(I1
I0
tp10217
tp10218
Rp10219
ag0
(g5
g6
(I1
I0
tp10220
tp10221
Rp10222
ag0
(g5
g6
(I1
I0
tp10223
tp10224
Rp10225
ag0
(g5
g6
(I1
I0
tp10226
tp10227
Rp10228
ag0
(g5
g6
(I1
I0
tp10229
tp10230
Rp10231
ag0
(g5
g6
(I1
I0
tp10232
tp10233
Rp10234
aa(lp10235
g0
(g5
g6
(I1
I0
tp10236
tp10237
Rp10238
ag0
(g5
g6
(I1
I0
tp10239
tp10240
Rp10241
ag0
(g5
g6
(I1
I0
tp10242
tp10243
Rp10244
ag0
(g5
g6
(I1
I0
tp10245
tp10246
Rp10247
ag0
(g5
g6
(I1
I0
tp10248
tp10249
Rp10250
ag0
(g5
g6
(I1
I0
tp10251
tp10252
Rp10253
ag0
(g5
g6
(I1
I0
tp10254
tp10255
Rp10256
ag0
(g5
g6
(I1
I0
tp10257
tp10258
Rp10259
ag0
(g5
g6
(I1
I0
tp10260
tp10261
Rp10262
ag0
(g5
g6
(I1
I0
tp10263
tp10264
Rp10265
ag0
(g5
g6
(I1
I0
tp10266
tp10267
Rp10268
ag0
(g5
g6
(I1
I0
tp10269
tp10270
Rp10271
ag0
(g5
g6
(I1
I0
tp10272
tp10273
Rp10274
ag0
(g5
g6
(I1
I0
tp10275
tp10276
Rp10277
ag0
(g5
g6
(I1
I0
tp10278
tp10279
Rp10280
ag0
(g5
g6
(I1
I0
tp10281
tp10282
Rp10283
ag0
(g5
g6
(I1
I0
tp10284
tp10285
Rp10286
ag0
(g5
g6
(I1
I0
tp10287
tp10288
Rp10289
ag0
(g5
g6
(I1
I0
tp10290
tp10291
Rp10292
ag0
(g5
g6
(I1
I0
tp10293
tp10294
Rp10295
ag0
(g5
g6
(I1
I0
tp10296
tp10297
Rp10298
ag0
(g5
g6
(I1
I0
tp10299
tp10300
Rp10301
ag0
(g5
g6
(I1
I0
tp10302
tp10303
Rp10304
ag0
(g5
g6
(I1
I-1
tp10305
tp10306
Rp10307
ag0
(g5
g6
(I1
I-1
tp10308
tp10309
Rp10310
ag0
(g5
g6
(I1
I0
tp10311
tp10312
Rp10313
ag0
(g5
g6
(I1
I-1
tp10314
tp10315
Rp10316
ag0
(g5
g6
(I1
I0
tp10317
tp10318
Rp10319
ag0
(g5
g6
(I1
I0
tp10320
tp10321
Rp10322
ag0
(g5
g6
(I1
I0
tp10323
tp10324
Rp10325
ag0
(g5
g6
(I1
I0
tp10326
tp10327
Rp10328
ag0
(g5
g6
(I1
I-1
tp10329
tp10330
Rp10331
ag0
(g5
g6
(I1
I0
tp10332
tp10333
Rp10334
ag0
(g5
g6
(I1
I-1
tp10335
tp10336
Rp10337
ag0
(g5
g6
(I1
I-1
tp10338
tp10339
Rp10340
ag0
(g5
g6
(I1
I0
tp10341
tp10342
Rp10343
ag0
(g5
g6
(I1
I-1
tp10344
tp10345
Rp10346
ag0
(g5
g6
(I1
I-1
tp10347
tp10348
Rp10349
ag0
(g5
g6
(I1
I-1
tp10350
tp10351
Rp10352
ag0
(g5
g6
(I1
I-1
tp10353
tp10354
Rp10355
ag0
(g5
g6
(I1
I-1
tp10356
tp10357
Rp10358
ag0
(g5
g6
(I1
I-1
tp10359
tp10360
Rp10361
ag0
(g5
g6
(I1
I-1
tp10362
tp10363
Rp10364
ag0
(g5
g6
(I1
I0
tp10365
tp10366
Rp10367
ag0
(g5
g6
(I1
I0
tp10368
tp10369
Rp10370
ag0
(g5
g6
(I1
I0
tp10371
tp10372
Rp10373
ag0
(g5
g6
(I1
I0
tp10374
tp10375
Rp10376
ag0
(g5
g6
(I1
I0
tp10377
tp10378
Rp10379
ag0
(g5
g6
(I1
I0
tp10380
tp10381
Rp10382
ag0
(g5
g6
(I1
I0
tp10383
tp10384
Rp10385
ag0
(g5
g6
(I1
I0
tp10386
tp10387
Rp10388
ag0
(g5
g6
(I1
I0
tp10389
tp10390
Rp10391
ag0
(g5
g6
(I1
I0
tp10392
tp10393
Rp10394
ag0
(g5
g6
(I1
I0
tp10395
tp10396
Rp10397
ag0
(g5
g6
(I1
I0
tp10398
tp10399
Rp10400
ag0
(g5
g6
(I1
I0
tp10401
tp10402
Rp10403
ag0
(g5
g6
(I1
I0
tp10404
tp10405
Rp10406
ag0
(g5
g6
(I1
I0
tp10407
tp10408
Rp10409
ag0
(g5
g6
(I1
I0
tp10410
tp10411
Rp10412
ag0
(g5
g6
(I1
I0
tp10413
tp10414
Rp10415
ag0
(g5
g6
(I1
I0
tp10416
tp10417
Rp10418
ag0
(g5
g6
(I1
I0
tp10419
tp10420
Rp10421
ag0
(g5
g6
(I1
I0
tp10422
tp10423
Rp10424
ag0
(g5
g6
(I1
I0
tp10425
tp10426
Rp10427
aa(lp10428
g0
(g5
g6
(I1
I0
tp10429
tp10430
Rp10431
ag0
(g5
g6
(I1
I0
tp10432
tp10433
Rp10434
ag0
(g5
g6
(I1
I0
tp10435
tp10436
Rp10437
ag0
(g5
g6
(I1
I0
tp10438
tp10439
Rp10440
ag0
(g5
g6
(I1
I0
tp10441
tp10442
Rp10443
ag0
(g5
g6
(I1
I0
tp10444
tp10445
Rp10446
ag0
(g5
g6
(I1
I0
tp10447
tp10448
Rp10449
ag0
(g5
g6
(I1
I0
tp10450
tp10451
Rp10452
ag0
(g5
g6
(I1
I0
tp10453
tp10454
Rp10455
ag0
(g5
g6
(I1
I0
tp10456
tp10457
Rp10458
ag0
(g5
g6
(I1
I0
tp10459
tp10460
Rp10461
ag0
(g5
g6
(I1
I0
tp10462
tp10463
Rp10464
ag0
(g5
g6
(I1
I0
tp10465
tp10466
Rp10467
ag0
(g5
g6
(I1
I0
tp10468
tp10469
Rp10470
ag0
(g5
g6
(I1
I0
tp10471
tp10472
Rp10473
ag0
(g5
g6
(I1
I0
tp10474
tp10475
Rp10476
ag0
(g5
g6
(I1
I0
tp10477
tp10478
Rp10479
ag0
(g5
g6
(I1
I0
tp10480
tp10481
Rp10482
ag0
(g5
g6
(I1
I0
tp10483
tp10484
Rp10485
ag0
(g5
g6
(I1
I0
tp10486
tp10487
Rp10488
ag0
(g5
g6
(I1
I0
tp10489
tp10490
Rp10491
ag0
(g5
g6
(I1
I0
tp10492
tp10493
Rp10494
ag0
(g5
g6
(I1
I0
tp10495
tp10496
Rp10497
ag0
(g5
g6
(I1
I0
tp10498
tp10499
Rp10500
ag0
(g5
g6
(I1
I-1
tp10501
tp10502
Rp10503
ag0
(g5
g6
(I1
I0
tp10504
tp10505
Rp10506
ag0
(g5
g6
(I1
I-1
tp10507
tp10508
Rp10509
ag0
(g5
g6
(I1
I-1
tp10510
tp10511
Rp10512
ag0
(g5
g6
(I1
I-1
tp10513
tp10514
Rp10515
ag0
(g5
g6
(I1
I-1
tp10516
tp10517
Rp10518
ag0
(g5
g6
(I1
I0
tp10519
tp10520
Rp10521
ag0
(g5
g6
(I1
I0
tp10522
tp10523
Rp10524
ag0
(g5
g6
(I1
I-1
tp10525
tp10526
Rp10527
ag0
(g5
g6
(I1
I-1
tp10528
tp10529
Rp10530
ag0
(g5
g6
(I1
I-1
tp10531
tp10532
Rp10533
ag0
(g5
g6
(I1
I-1
tp10534
tp10535
Rp10536
ag0
(g5
g6
(I1
I-1
tp10537
tp10538
Rp10539
ag0
(g5
g6
(I1
I-1
tp10540
tp10541
Rp10542
ag0
(g5
g6
(I1
I0
tp10543
tp10544
Rp10545
ag0
(g5
g6
(I1
I0
tp10546
tp10547
Rp10548
ag0
(g5
g6
(I1
I-1
tp10549
tp10550
Rp10551
ag0
(g5
g6
(I1
I-1
tp10552
tp10553
Rp10554
ag0
(g5
g6
(I1
I-1
tp10555
tp10556
Rp10557
ag0
(g5
g6
(I1
I-1
tp10558
tp10559
Rp10560
ag0
(g5
g6
(I1
I-1
tp10561
tp10562
Rp10563
ag0
(g5
g6
(I1
I0
tp10564
tp10565
Rp10566
ag0
(g5
g6
(I1
I0
tp10567
tp10568
Rp10569
ag0
(g5
g6
(I1
I0
tp10570
tp10571
Rp10572
ag0
(g5
g6
(I1
I0
tp10573
tp10574
Rp10575
ag0
(g5
g6
(I1
I0
tp10576
tp10577
Rp10578
ag0
(g5
g6
(I1
I0
tp10579
tp10580
Rp10581
ag0
(g5
g6
(I1
I0
tp10582
tp10583
Rp10584
ag0
(g5
g6
(I1
I0
tp10585
tp10586
Rp10587
ag0
(g5
g6
(I1
I0
tp10588
tp10589
Rp10590
ag0
(g5
g6
(I1
I0
tp10591
tp10592
Rp10593
ag0
(g5
g6
(I1
I0
tp10594
tp10595
Rp10596
ag0
(g5
g6
(I1
I0
tp10597
tp10598
Rp10599
ag0
(g5
g6
(I1
I0
tp10600
tp10601
Rp10602
ag0
(g5
g6
(I1
I0
tp10603
tp10604
Rp10605
ag0
(g5
g6
(I1
I0
tp10606
tp10607
Rp10608
ag0
(g5
g6
(I1
I0
tp10609
tp10610
Rp10611
ag0
(g5
g6
(I1
I0
tp10612
tp10613
Rp10614
ag0
(g5
g6
(I1
I0
tp10615
tp10616
Rp10617
ag0
(g5
g6
(I1
I0
tp10618
tp10619
Rp10620
aa(lp10621
g0
(g5
g6
(I1
I0
tp10622
tp10623
Rp10624
ag0
(g5
g6
(I1
I0
tp10625
tp10626
Rp10627
ag0
(g5
g6
(I1
I0
tp10628
tp10629
Rp10630
ag0
(g5
g6
(I1
I0
tp10631
tp10632
Rp10633
ag0
(g5
g6
(I1
I0
tp10634
tp10635
Rp10636
ag0
(g5
g6
(I1
I0
tp10637
tp10638
Rp10639
ag0
(g5
g6
(I1
I0
tp10640
tp10641
Rp10642
ag0
(g5
g6
(I1
I0
tp10643
tp10644
Rp10645
ag0
(g5
g6
(I1
I0
tp10646
tp10647
Rp10648
ag0
(g5
g6
(I1
I0
tp10649
tp10650
Rp10651
ag0
(g5
g6
(I1
I0
tp10652
tp10653
Rp10654
ag0
(g5
g6
(I1
I0
tp10655
tp10656
Rp10657
ag0
(g5
g6
(I1
I0
tp10658
tp10659
Rp10660
ag0
(g5
g6
(I1
I0
tp10661
tp10662
Rp10663
ag0
(g5
g6
(I1
I0
tp10664
tp10665
Rp10666
ag0
(g5
g6
(I1
I0
tp10667
tp10668
Rp10669
ag0
(g5
g6
(I1
I0
tp10670
tp10671
Rp10672
ag0
(g5
g6
(I1
I0
tp10673
tp10674
Rp10675
ag0
(g5
g6
(I1
I0
tp10676
tp10677
Rp10678
ag0
(g5
g6
(I1
I0
tp10679
tp10680
Rp10681
ag0
(g5
g6
(I1
I0
tp10682
tp10683
Rp10684
ag0
(g5
g6
(I1
I0
tp10685
tp10686
Rp10687
ag0
(g5
g6
(I1
I0
tp10688
tp10689
Rp10690
ag0
(g5
g6
(I1
I0
tp10691
tp10692
Rp10693
ag0
(g5
g6
(I1
I0
tp10694
tp10695
Rp10696
ag0
(g5
g6
(I1
I0
tp10697
tp10698
Rp10699
ag0
(g5
g6
(I1
I0
tp10700
tp10701
Rp10702
ag0
(g5
g6
(I1
I0
tp10703
tp10704
Rp10705
ag0
(g5
g6
(I1
I0
tp10706
tp10707
Rp10708
ag0
(g5
g6
(I1
I0
tp10709
tp10710
Rp10711
ag0
(g5
g6
(I1
I0
tp10712
tp10713
Rp10714
ag0
(g5
g6
(I1
I0
tp10715
tp10716
Rp10717
ag0
(g5
g6
(I1
I0
tp10718
tp10719
Rp10720
ag0
(g5
g6
(I1
I0
tp10721
tp10722
Rp10723
ag0
(g5
g6
(I1
I0
tp10724
tp10725
Rp10726
ag0
(g5
g6
(I1
I0
tp10727
tp10728
Rp10729
ag0
(g5
g6
(I1
I0
tp10730
tp10731
Rp10732
ag0
(g5
g6
(I1
I0
tp10733
tp10734
Rp10735
ag0
(g5
g6
(I1
I0
tp10736
tp10737
Rp10738
ag0
(g5
g6
(I1
I0
tp10739
tp10740
Rp10741
ag0
(g5
g6
(I1
I0
tp10742
tp10743
Rp10744
ag0
(g5
g6
(I1
I0
tp10745
tp10746
Rp10747
ag0
(g5
g6
(I1
I0
tp10748
tp10749
Rp10750
ag0
(g5
g6
(I1
I0
tp10751
tp10752
Rp10753
ag0
(g5
g6
(I1
I0
tp10754
tp10755
Rp10756
ag0
(g5
g6
(I1
I0
tp10757
tp10758
Rp10759
ag0
(g5
g6
(I1
I0
tp10760
tp10761
Rp10762
ag0
(g5
g6
(I1
I0
tp10763
tp10764
Rp10765
ag0
(g5
g6
(I1
I0
tp10766
tp10767
Rp10768
ag0
(g5
g6
(I1
I0
tp10769
tp10770
Rp10771
ag0
(g5
g6
(I1
I0
tp10772
tp10773
Rp10774
ag0
(g5
g6
(I1
I0
tp10775
tp10776
Rp10777
ag0
(g5
g6
(I1
I0
tp10778
tp10779
Rp10780
ag0
(g5
g6
(I1
I0
tp10781
tp10782
Rp10783
ag0
(g5
g6
(I1
I0
tp10784
tp10785
Rp10786
ag0
(g5
g6
(I1
I0
tp10787
tp10788
Rp10789
ag0
(g5
g6
(I1
I0
tp10790
tp10791
Rp10792
ag0
(g5
g6
(I1
I0
tp10793
tp10794
Rp10795
ag0
(g5
g6
(I1
I0
tp10796
tp10797
Rp10798
ag0
(g5
g6
(I1
I0
tp10799
tp10800
Rp10801
ag0
(g5
g6
(I1
I0
tp10802
tp10803
Rp10804
ag0
(g5
g6
(I1
I0
tp10805
tp10806
Rp10807
ag0
(g5
g6
(I1
I0
tp10808
tp10809
Rp10810
ag0
(g5
g6
(I1
I0
tp10811
tp10812
Rp10813
aa(lp10814
g0
(g5
g6
(I1
I0
tp10815
tp10816
Rp10817
ag0
(g5
g6
(I1
I0
tp10818
tp10819
Rp10820
ag0
(g5
g6
(I1
I0
tp10821
tp10822
Rp10823
ag0
(g5
g6
(I1
I0
tp10824
tp10825
Rp10826
ag0
(g5
g6
(I1
I0
tp10827
tp10828
Rp10829
ag0
(g5
g6
(I1
I0
tp10830
tp10831
Rp10832
ag0
(g5
g6
(I1
I0
tp10833
tp10834
Rp10835
ag0
(g5
g6
(I1
I0
tp10836
tp10837
Rp10838
ag0
(g5
g6
(I1
I0
tp10839
tp10840
Rp10841
ag0
(g5
g6
(I1
I0
tp10842
tp10843
Rp10844
ag0
(g5
g6
(I1
I0
tp10845
tp10846
Rp10847
ag0
(g5
g6
(I1
I0
tp10848
tp10849
Rp10850
ag0
(g5
g6
(I1
I0
tp10851
tp10852
Rp10853
ag0
(g5
g6
(I1
I0
tp10854
tp10855
Rp10856
ag0
(g5
g6
(I1
I0
tp10857
tp10858
Rp10859
ag0
(g5
g6
(I1
I0
tp10860
tp10861
Rp10862
ag0
(g5
g6
(I1
I0
tp10863
tp10864
Rp10865
ag0
(g5
g6
(I1
I0
tp10866
tp10867
Rp10868
ag0
(g5
g6
(I1
I0
tp10869
tp10870
Rp10871
ag0
(g5
g6
(I1
I0
tp10872
tp10873
Rp10874
ag0
(g5
g6
(I1
I0
tp10875
tp10876
Rp10877
ag0
(g5
g6
(I1
I0
tp10878
tp10879
Rp10880
ag0
(g5
g6
(I1
I0
tp10881
tp10882
Rp10883
ag0
(g5
g6
(I1
I0
tp10884
tp10885
Rp10886
ag0
(g5
g6
(I1
I0
tp10887
tp10888
Rp10889
ag0
(g5
g6
(I1
I0
tp10890
tp10891
Rp10892
ag0
(g5
g6
(I1
I0
tp10893
tp10894
Rp10895
ag0
(g5
g6
(I1
I0
tp10896
tp10897
Rp10898
ag0
(g5
g6
(I1
I0
tp10899
tp10900
Rp10901
ag0
(g5
g6
(I1
I0
tp10902
tp10903
Rp10904
ag0
(g5
g6
(I1
I0
tp10905
tp10906
Rp10907
ag0
(g5
g6
(I1
I0
tp10908
tp10909
Rp10910
ag0
(g5
g6
(I1
I0
tp10911
tp10912
Rp10913
ag0
(g5
g6
(I1
I0
tp10914
tp10915
Rp10916
ag0
(g5
g6
(I1
I0
tp10917
tp10918
Rp10919
ag0
(g5
g6
(I1
I0
tp10920
tp10921
Rp10922
ag0
(g5
g6
(I1
I0
tp10923
tp10924
Rp10925
ag0
(g5
g6
(I1
I0
tp10926
tp10927
Rp10928
ag0
(g5
g6
(I1
I0
tp10929
tp10930
Rp10931
ag0
(g5
g6
(I1
I0
tp10932
tp10933
Rp10934
ag0
(g5
g6
(I1
I0
tp10935
tp10936
Rp10937
ag0
(g5
g6
(I1
I0
tp10938
tp10939
Rp10940
ag0
(g5
g6
(I1
I0
tp10941
tp10942
Rp10943
ag0
(g5
g6
(I1
I0
tp10944
tp10945
Rp10946
ag0
(g5
g6
(I1
I0
tp10947
tp10948
Rp10949
ag0
(g5
g6
(I1
I0
tp10950
tp10951
Rp10952
ag0
(g5
g6
(I1
I0
tp10953
tp10954
Rp10955
ag0
(g5
g6
(I1
I0
tp10956
tp10957
Rp10958
ag0
(g5
g6
(I1
I0
tp10959
tp10960
Rp10961
ag0
(g5
g6
(I1
I0
tp10962
tp10963
Rp10964
ag0
(g5
g6
(I1
I0
tp10965
tp10966
Rp10967
ag0
(g5
g6
(I1
I0
tp10968
tp10969
Rp10970
ag0
(g5
g6
(I1
I0
tp10971
tp10972
Rp10973
ag0
(g5
g6
(I1
I0
tp10974
tp10975
Rp10976
ag0
(g5
g6
(I1
I0
tp10977
tp10978
Rp10979
ag0
(g5
g6
(I1
I0
tp10980
tp10981
Rp10982
ag0
(g5
g6
(I1
I0
tp10983
tp10984
Rp10985
ag0
(g5
g6
(I1
I0
tp10986
tp10987
Rp10988
ag0
(g5
g6
(I1
I0
tp10989
tp10990
Rp10991
ag0
(g5
g6
(I1
I0
tp10992
tp10993
Rp10994
ag0
(g5
g6
(I1
I0
tp10995
tp10996
Rp10997
ag0
(g5
g6
(I1
I0
tp10998
tp10999
Rp11000
ag0
(g5
g6
(I1
I0
tp11001
tp11002
Rp11003
ag0
(g5
g6
(I1
I0
tp11004
tp11005
Rp11006
aa(lp11007
g0
(g5
g6
(I1
I0
tp11008
tp11009
Rp11010
ag0
(g5
g6
(I1
I0
tp11011
tp11012
Rp11013
ag0
(g5
g6
(I1
I0
tp11014
tp11015
Rp11016
ag0
(g5
g6
(I1
I0
tp11017
tp11018
Rp11019
ag0
(g5
g6
(I1
I0
tp11020
tp11021
Rp11022
ag0
(g5
g6
(I1
I0
tp11023
tp11024
Rp11025
ag0
(g5
g6
(I1
I0
tp11026
tp11027
Rp11028
ag0
(g5
g6
(I1
I0
tp11029
tp11030
Rp11031
ag0
(g5
g6
(I1
I0
tp11032
tp11033
Rp11034
ag0
(g5
g6
(I1
I0
tp11035
tp11036
Rp11037
ag0
(g5
g6
(I1
I0
tp11038
tp11039
Rp11040
ag0
(g5
g6
(I1
I0
tp11041
tp11042
Rp11043
ag0
(g5
g6
(I1
I0
tp11044
tp11045
Rp11046
ag0
(g5
g6
(I1
I0
tp11047
tp11048
Rp11049
ag0
(g5
g6
(I1
I0
tp11050
tp11051
Rp11052
ag0
(g5
g6
(I1
I0
tp11053
tp11054
Rp11055
ag0
(g5
g6
(I1
I0
tp11056
tp11057
Rp11058
ag0
(g5
g6
(I1
I0
tp11059
tp11060
Rp11061
ag0
(g5
g6
(I1
I0
tp11062
tp11063
Rp11064
ag0
(g5
g6
(I1
I0
tp11065
tp11066
Rp11067
ag0
(g5
g6
(I1
I0
tp11068
tp11069
Rp11070
ag0
(g5
g6
(I1
I0
tp11071
tp11072
Rp11073
ag0
(g5
g6
(I1
I0
tp11074
tp11075
Rp11076
ag0
(g5
g6
(I1
I0
tp11077
tp11078
Rp11079
ag0
(g5
g6
(I1
I0
tp11080
tp11081
Rp11082
ag0
(g5
g6
(I1
I0
tp11083
tp11084
Rp11085
ag0
(g5
g6
(I1
I0
tp11086
tp11087
Rp11088
ag0
(g5
g6
(I1
I0
tp11089
tp11090
Rp11091
ag0
(g5
g6
(I1
I0
tp11092
tp11093
Rp11094
ag0
(g5
g6
(I1
I0
tp11095
tp11096
Rp11097
ag0
(g5
g6
(I1
I0
tp11098
tp11099
Rp11100
ag0
(g5
g6
(I1
I0
tp11101
tp11102
Rp11103
ag0
(g5
g6
(I1
I0
tp11104
tp11105
Rp11106
ag0
(g5
g6
(I1
I0
tp11107
tp11108
Rp11109
ag0
(g5
g6
(I1
I0
tp11110
tp11111
Rp11112
ag0
(g5
g6
(I1
I0
tp11113
tp11114
Rp11115
ag0
(g5
g6
(I1
I0
tp11116
tp11117
Rp11118
ag0
(g5
g6
(I1
I0
tp11119
tp11120
Rp11121
ag0
(g5
g6
(I1
I0
tp11122
tp11123
Rp11124
ag0
(g5
g6
(I1
I0
tp11125
tp11126
Rp11127
ag0
(g5
g6
(I1
I0
tp11128
tp11129
Rp11130
ag0
(g5
g6
(I1
I0
tp11131
tp11132
Rp11133
ag0
(g5
g6
(I1
I0
tp11134
tp11135
Rp11136
ag0
(g5
g6
(I1
I0
tp11137
tp11138
Rp11139
ag0
(g5
g6
(I1
I0
tp11140
tp11141
Rp11142
ag0
(g5
g6
(I1
I0
tp11143
tp11144
Rp11145
ag0
(g5
g6
(I1
I0
tp11146
tp11147
Rp11148
ag0
(g5
g6
(I1
I0
tp11149
tp11150
Rp11151
ag0
(g5
g6
(I1
I0
tp11152
tp11153
Rp11154
ag0
(g5
g6
(I1
I0
tp11155
tp11156
Rp11157
ag0
(g5
g6
(I1
I0
tp11158
tp11159
Rp11160
ag0
(g5
g6
(I1
I0
tp11161
tp11162
Rp11163
ag0
(g5
g6
(I1
I0
tp11164
tp11165
Rp11166
ag0
(g5
g6
(I1
I0
tp11167
tp11168
Rp11169
ag0
(g5
g6
(I1
I0
tp11170
tp11171
Rp11172
ag0
(g5
g6
(I1
I0
tp11173
tp11174
Rp11175
ag0
(g5
g6
(I1
I0
tp11176
tp11177
Rp11178
ag0
(g5
g6
(I1
I0
tp11179
tp11180
Rp11181
ag0
(g5
g6
(I1
I0
tp11182
tp11183
Rp11184
ag0
(g5
g6
(I1
I0
tp11185
tp11186
Rp11187
ag0
(g5
g6
(I1
I0
tp11188
tp11189
Rp11190
ag0
(g5
g6
(I1
I0
tp11191
tp11192
Rp11193
ag0
(g5
g6
(I1
I0
tp11194
tp11195
Rp11196
ag0
(g5
g6
(I1
I0
tp11197
tp11198
Rp11199
aa(lp11200
g0
(g5
g6
(I1
I0
tp11201
tp11202
Rp11203
ag0
(g5
g6
(I1
I0
tp11204
tp11205
Rp11206
ag0
(g5
g6
(I1
I0
tp11207
tp11208
Rp11209
ag0
(g5
g6
(I1
I0
tp11210
tp11211
Rp11212
ag0
(g5
g6
(I1
I0
tp11213
tp11214
Rp11215
ag0
(g5
g6
(I1
I0
tp11216
tp11217
Rp11218
ag0
(g5
g6
(I1
I0
tp11219
tp11220
Rp11221
ag0
(g5
g6
(I1
I0
tp11222
tp11223
Rp11224
ag0
(g5
g6
(I1
I0
tp11225
tp11226
Rp11227
ag0
(g5
g6
(I1
I0
tp11228
tp11229
Rp11230
ag0
(g5
g6
(I1
I0
tp11231
tp11232
Rp11233
ag0
(g5
g6
(I1
I0
tp11234
tp11235
Rp11236
ag0
(g5
g6
(I1
I0
tp11237
tp11238
Rp11239
ag0
(g5
g6
(I1
I0
tp11240
tp11241
Rp11242
ag0
(g5
g6
(I1
I0
tp11243
tp11244
Rp11245
ag0
(g5
g6
(I1
I0
tp11246
tp11247
Rp11248
ag0
(g5
g6
(I1
I0
tp11249
tp11250
Rp11251
ag0
(g5
g6
(I1
I0
tp11252
tp11253
Rp11254
ag0
(g5
g6
(I1
I0
tp11255
tp11256
Rp11257
ag0
(g5
g6
(I1
I0
tp11258
tp11259
Rp11260
ag0
(g5
g6
(I1
I0
tp11261
tp11262
Rp11263
ag0
(g5
g6
(I1
I0
tp11264
tp11265
Rp11266
ag0
(g5
g6
(I1
I0
tp11267
tp11268
Rp11269
ag0
(g5
g6
(I1
I0
tp11270
tp11271
Rp11272
ag0
(g5
g6
(I1
I0
tp11273
tp11274
Rp11275
ag0
(g5
g6
(I1
I0
tp11276
tp11277
Rp11278
ag0
(g5
g6
(I1
I0
tp11279
tp11280
Rp11281
ag0
(g5
g6
(I1
I0
tp11282
tp11283
Rp11284
ag0
(g5
g6
(I1
I0
tp11285
tp11286
Rp11287
ag0
(g5
g6
(I1
I0
tp11288
tp11289
Rp11290
ag0
(g5
g6
(I1
I0
tp11291
tp11292
Rp11293
ag0
(g5
g6
(I1
I0
tp11294
tp11295
Rp11296
ag0
(g5
g6
(I1
I0
tp11297
tp11298
Rp11299
ag0
(g5
g6
(I1
I0
tp11300
tp11301
Rp11302
ag0
(g5
g6
(I1
I0
tp11303
tp11304
Rp11305
ag0
(g5
g6
(I1
I0
tp11306
tp11307
Rp11308
ag0
(g5
g6
(I1
I0
tp11309
tp11310
Rp11311
ag0
(g5
g6
(I1
I0
tp11312
tp11313
Rp11314
ag0
(g5
g6
(I1
I0
tp11315
tp11316
Rp11317
ag0
(g5
g6
(I1
I0
tp11318
tp11319
Rp11320
ag0
(g5
g6
(I1
I0
tp11321
tp11322
Rp11323
ag0
(g5
g6
(I1
I0
tp11324
tp11325
Rp11326
ag0
(g5
g6
(I1
I0
tp11327
tp11328
Rp11329
ag0
(g5
g6
(I1
I0
tp11330
tp11331
Rp11332
ag0
(g5
g6
(I1
I0
tp11333
tp11334
Rp11335
ag0
(g5
g6
(I1
I0
tp11336
tp11337
Rp11338
ag0
(g5
g6
(I1
I0
tp11339
tp11340
Rp11341
ag0
(g5
g6
(I1
I0
tp11342
tp11343
Rp11344
ag0
(g5
g6
(I1
I0
tp11345
tp11346
Rp11347
ag0
(g5
g6
(I1
I0
tp11348
tp11349
Rp11350
ag0
(g5
g6
(I1
I0
tp11351
tp11352
Rp11353
ag0
(g5
g6
(I1
I0
tp11354
tp11355
Rp11356
ag0
(g5
g6
(I1
I0
tp11357
tp11358
Rp11359
ag0
(g5
g6
(I1
I0
tp11360
tp11361
Rp11362
ag0
(g5
g6
(I1
I0
tp11363
tp11364
Rp11365
ag0
(g5
g6
(I1
I0
tp11366
tp11367
Rp11368
ag0
(g5
g6
(I1
I0
tp11369
tp11370
Rp11371
ag0
(g5
g6
(I1
I0
tp11372
tp11373
Rp11374
ag0
(g5
g6
(I1
I0
tp11375
tp11376
Rp11377
ag0
(g5
g6
(I1
I0
tp11378
tp11379
Rp11380
ag0
(g5
g6
(I1
I0
tp11381
tp11382
Rp11383
ag0
(g5
g6
(I1
I0
tp11384
tp11385
Rp11386
ag0
(g5
g6
(I1
I0
tp11387
tp11388
Rp11389
ag0
(g5
g6
(I1
I0
tp11390
tp11391
Rp11392
aa(lp11393
g0
(g5
g6
(I1
I0
tp11394
tp11395
Rp11396
ag0
(g5
g6
(I1
I0
tp11397
tp11398
Rp11399
ag0
(g5
g6
(I1
I0
tp11400
tp11401
Rp11402
ag0
(g5
g6
(I1
I0
tp11403
tp11404
Rp11405
ag0
(g5
g6
(I1
I0
tp11406
tp11407
Rp11408
ag0
(g5
g6
(I1
I0
tp11409
tp11410
Rp11411
ag0
(g5
g6
(I1
I0
tp11412
tp11413
Rp11414
ag0
(g5
g6
(I1
I0
tp11415
tp11416
Rp11417
ag0
(g5
g6
(I1
I0
tp11418
tp11419
Rp11420
ag0
(g5
g6
(I1
I0
tp11421
tp11422
Rp11423
ag0
(g5
g6
(I1
I0
tp11424
tp11425
Rp11426
ag0
(g5
g6
(I1
I0
tp11427
tp11428
Rp11429
ag0
(g5
g6
(I1
I0
tp11430
tp11431
Rp11432
ag0
(g5
g6
(I1
I0
tp11433
tp11434
Rp11435
ag0
(g5
g6
(I1
I0
tp11436
tp11437
Rp11438
ag0
(g5
g6
(I1
I0
tp11439
tp11440
Rp11441
ag0
(g5
g6
(I1
I0
tp11442
tp11443
Rp11444
ag0
(g5
g6
(I1
I0
tp11445
tp11446
Rp11447
ag0
(g5
g6
(I1
I0
tp11448
tp11449
Rp11450
ag0
(g5
g6
(I1
I0
tp11451
tp11452
Rp11453
ag0
(g5
g6
(I1
I0
tp11454
tp11455
Rp11456
ag0
(g5
g6
(I1
I0
tp11457
tp11458
Rp11459
ag0
(g5
g6
(I1
I0
tp11460
tp11461
Rp11462
ag0
(g5
g6
(I1
I0
tp11463
tp11464
Rp11465
ag0
(g5
g6
(I1
I0
tp11466
tp11467
Rp11468
ag0
(g5
g6
(I1
I0
tp11469
tp11470
Rp11471
ag0
(g5
g6
(I1
I0
tp11472
tp11473
Rp11474
ag0
(g5
g6
(I1
I0
tp11475
tp11476
Rp11477
ag0
(g5
g6
(I1
I0
tp11478
tp11479
Rp11480
ag0
(g5
g6
(I1
I0
tp11481
tp11482
Rp11483
ag0
(g5
g6
(I1
I0
tp11484
tp11485
Rp11486
ag0
(g5
g6
(I1
I0
tp11487
tp11488
Rp11489
ag0
(g5
g6
(I1
I0
tp11490
tp11491
Rp11492
ag0
(g5
g6
(I1
I0
tp11493
tp11494
Rp11495
ag0
(g5
g6
(I1
I0
tp11496
tp11497
Rp11498
ag0
(g5
g6
(I1
I0
tp11499
tp11500
Rp11501
ag0
(g5
g6
(I1
I0
tp11502
tp11503
Rp11504
ag0
(g5
g6
(I1
I0
tp11505
tp11506
Rp11507
ag0
(g5
g6
(I1
I0
tp11508
tp11509
Rp11510
ag0
(g5
g6
(I1
I0
tp11511
tp11512
Rp11513
ag0
(g5
g6
(I1
I0
tp11514
tp11515
Rp11516
ag0
(g5
g6
(I1
I0
tp11517
tp11518
Rp11519
ag0
(g5
g6
(I1
I0
tp11520
tp11521
Rp11522
ag0
(g5
g6
(I1
I0
tp11523
tp11524
Rp11525
ag0
(g5
g6
(I1
I0
tp11526
tp11527
Rp11528
ag0
(g5
g6
(I1
I0
tp11529
tp11530
Rp11531
ag0
(g5
g6
(I1
I0
tp11532
tp11533
Rp11534
ag0
(g5
g6
(I1
I0
tp11535
tp11536
Rp11537
ag0
(g5
g6
(I1
I0
tp11538
tp11539
Rp11540
ag0
(g5
g6
(I1
I0
tp11541
tp11542
Rp11543
ag0
(g5
g6
(I1
I0
tp11544
tp11545
Rp11546
ag0
(g5
g6
(I1
I0
tp11547
tp11548
Rp11549
ag0
(g5
g6
(I1
I0
tp11550
tp11551
Rp11552
ag0
(g5
g6
(I1
I0
tp11553
tp11554
Rp11555
ag0
(g5
g6
(I1
I0
tp11556
tp11557
Rp11558
ag0
(g5
g6
(I1
I0
tp11559
tp11560
Rp11561
ag0
(g5
g6
(I1
I0
tp11562
tp11563
Rp11564
ag0
(g5
g6
(I1
I0
tp11565
tp11566
Rp11567
ag0
(g5
g6
(I1
I0
tp11568
tp11569
Rp11570
ag0
(g5
g6
(I1
I0
tp11571
tp11572
Rp11573
ag0
(g5
g6
(I1
I0
tp11574
tp11575
Rp11576
ag0
(g5
g6
(I1
I0
tp11577
tp11578
Rp11579
ag0
(g5
g6
(I1
I0
tp11580
tp11581
Rp11582
ag0
(g5
g6
(I1
I0
tp11583
tp11584
Rp11585
aa(lp11586
g0
(g5
g6
(I1
I0
tp11587
tp11588
Rp11589
ag0
(g5
g6
(I1
I0
tp11590
tp11591
Rp11592
ag0
(g5
g6
(I1
I0
tp11593
tp11594
Rp11595
ag0
(g5
g6
(I1
I0
tp11596
tp11597
Rp11598
ag0
(g5
g6
(I1
I0
tp11599
tp11600
Rp11601
ag0
(g5
g6
(I1
I0
tp11602
tp11603
Rp11604
ag0
(g5
g6
(I1
I0
tp11605
tp11606
Rp11607
ag0
(g5
g6
(I1
I0
tp11608
tp11609
Rp11610
ag0
(g5
g6
(I1
I0
tp11611
tp11612
Rp11613
ag0
(g5
g6
(I1
I0
tp11614
tp11615
Rp11616
ag0
(g5
g6
(I1
I0
tp11617
tp11618
Rp11619
ag0
(g5
g6
(I1
I0
tp11620
tp11621
Rp11622
ag0
(g5
g6
(I1
I0
tp11623
tp11624
Rp11625
ag0
(g5
g6
(I1
I0
tp11626
tp11627
Rp11628
ag0
(g5
g6
(I1
I0
tp11629
tp11630
Rp11631
ag0
(g5
g6
(I1
I0
tp11632
tp11633
Rp11634
ag0
(g5
g6
(I1
I0
tp11635
tp11636
Rp11637
ag0
(g5
g6
(I1
I0
tp11638
tp11639
Rp11640
ag0
(g5
g6
(I1
I0
tp11641
tp11642
Rp11643
ag0
(g5
g6
(I1
I0
tp11644
tp11645
Rp11646
ag0
(g5
g6
(I1
I0
tp11647
tp11648
Rp11649
ag0
(g5
g6
(I1
I0
tp11650
tp11651
Rp11652
ag0
(g5
g6
(I1
I0
tp11653
tp11654
Rp11655
ag0
(g5
g6
(I1
I0
tp11656
tp11657
Rp11658
ag0
(g5
g6
(I1
I0
tp11659
tp11660
Rp11661
ag0
(g5
g6
(I1
I0
tp11662
tp11663
Rp11664
ag0
(g5
g6
(I1
I0
tp11665
tp11666
Rp11667
ag0
(g5
g6
(I1
I0
tp11668
tp11669
Rp11670
ag0
(g5
g6
(I1
I0
tp11671
tp11672
Rp11673
ag0
(g5
g6
(I1
I0
tp11674
tp11675
Rp11676
ag0
(g5
g6
(I1
I0
tp11677
tp11678
Rp11679
ag0
(g5
g6
(I1
I0
tp11680
tp11681
Rp11682
ag0
(g5
g6
(I1
I0
tp11683
tp11684
Rp11685
ag0
(g5
g6
(I1
I0
tp11686
tp11687
Rp11688
ag0
(g5
g6
(I1
I0
tp11689
tp11690
Rp11691
ag0
(g5
g6
(I1
I0
tp11692
tp11693
Rp11694
ag0
(g5
g6
(I1
I0
tp11695
tp11696
Rp11697
ag0
(g5
g6
(I1
I0
tp11698
tp11699
Rp11700
ag0
(g5
g6
(I1
I0
tp11701
tp11702
Rp11703
ag0
(g5
g6
(I1
I0
tp11704
tp11705
Rp11706
ag0
(g5
g6
(I1
I0
tp11707
tp11708
Rp11709
ag0
(g5
g6
(I1
I0
tp11710
tp11711
Rp11712
ag0
(g5
g6
(I1
I0
tp11713
tp11714
Rp11715
ag0
(g5
g6
(I1
I0
tp11716
tp11717
Rp11718
ag0
(g5
g6
(I1
I0
tp11719
tp11720
Rp11721
ag0
(g5
g6
(I1
I0
tp11722
tp11723
Rp11724
ag0
(g5
g6
(I1
I0
tp11725
tp11726
Rp11727
ag0
(g5
g6
(I1
I0
tp11728
tp11729
Rp11730
ag0
(g5
g6
(I1
I0
tp11731
tp11732
Rp11733
ag0
(g5
g6
(I1
I0
tp11734
tp11735
Rp11736
ag0
(g5
g6
(I1
I0
tp11737
tp11738
Rp11739
ag0
(g5
g6
(I1
I0
tp11740
tp11741
Rp11742
ag0
(g5
g6
(I1
I0
tp11743
tp11744
Rp11745
ag0
(g5
g6
(I1
I0
tp11746
tp11747
Rp11748
ag0
(g5
g6
(I1
I0
tp11749
tp11750
Rp11751
ag0
(g5
g6
(I1
I0
tp11752
tp11753
Rp11754
ag0
(g5
g6
(I1
I0
tp11755
tp11756
Rp11757
ag0
(g5
g6
(I1
I0
tp11758
tp11759
Rp11760
ag0
(g5
g6
(I1
I0
tp11761
tp11762
Rp11763
ag0
(g5
g6
(I1
I0
tp11764
tp11765
Rp11766
ag0
(g5
g6
(I1
I0
tp11767
tp11768
Rp11769
ag0
(g5
g6
(I1
I0
tp11770
tp11771
Rp11772
ag0
(g5
g6
(I1
I0
tp11773
tp11774
Rp11775
ag0
(g5
g6
(I1
I0
tp11776
tp11777
Rp11778
aa(lp11779
g0
(g5
g6
(I1
I0
tp11780
tp11781
Rp11782
ag0
(g5
g6
(I1
I0
tp11783
tp11784
Rp11785
ag0
(g5
g6
(I1
I0
tp11786
tp11787
Rp11788
ag0
(g5
g6
(I1
I0
tp11789
tp11790
Rp11791
ag0
(g5
g6
(I1
I0
tp11792
tp11793
Rp11794
ag0
(g5
g6
(I1
I0
tp11795
tp11796
Rp11797
ag0
(g5
g6
(I1
I0
tp11798
tp11799
Rp11800
ag0
(g5
g6
(I1
I0
tp11801
tp11802
Rp11803
ag0
(g5
g6
(I1
I0
tp11804
tp11805
Rp11806
ag0
(g5
g6
(I1
I0
tp11807
tp11808
Rp11809
ag0
(g5
g6
(I1
I0
tp11810
tp11811
Rp11812
ag0
(g5
g6
(I1
I0
tp11813
tp11814
Rp11815
ag0
(g5
g6
(I1
I0
tp11816
tp11817
Rp11818
ag0
(g5
g6
(I1
I0
tp11819
tp11820
Rp11821
ag0
(g5
g6
(I1
I0
tp11822
tp11823
Rp11824
ag0
(g5
g6
(I1
I0
tp11825
tp11826
Rp11827
ag0
(g5
g6
(I1
I0
tp11828
tp11829
Rp11830
ag0
(g5
g6
(I1
I0
tp11831
tp11832
Rp11833
ag0
(g5
g6
(I1
I0
tp11834
tp11835
Rp11836
ag0
(g5
g6
(I1
I0
tp11837
tp11838
Rp11839
ag0
(g5
g6
(I1
I0
tp11840
tp11841
Rp11842
ag0
(g5
g6
(I1
I0
tp11843
tp11844
Rp11845
ag0
(g5
g6
(I1
I0
tp11846
tp11847
Rp11848
ag0
(g5
g6
(I1
I0
tp11849
tp11850
Rp11851
ag0
(g5
g6
(I1
I0
tp11852
tp11853
Rp11854
ag0
(g5
g6
(I1
I0
tp11855
tp11856
Rp11857
ag0
(g5
g6
(I1
I0
tp11858
tp11859
Rp11860
ag0
(g5
g6
(I1
I0
tp11861
tp11862
Rp11863
ag0
(g5
g6
(I1
I0
tp11864
tp11865
Rp11866
ag0
(g5
g6
(I1
I0
tp11867
tp11868
Rp11869
ag0
(g5
g6
(I1
I0
tp11870
tp11871
Rp11872
ag0
(g5
g6
(I1
I0
tp11873
tp11874
Rp11875
ag0
(g5
g6
(I1
I0
tp11876
tp11877
Rp11878
ag0
(g5
g6
(I1
I0
tp11879
tp11880
Rp11881
ag0
(g5
g6
(I1
I0
tp11882
tp11883
Rp11884
ag0
(g5
g6
(I1
I0
tp11885
tp11886
Rp11887
ag0
(g5
g6
(I1
I0
tp11888
tp11889
Rp11890
ag0
(g5
g6
(I1
I0
tp11891
tp11892
Rp11893
ag0
(g5
g6
(I1
I0
tp11894
tp11895
Rp11896
ag0
(g5
g6
(I1
I0
tp11897
tp11898
Rp11899
ag0
(g5
g6
(I1
I0
tp11900
tp11901
Rp11902
ag0
(g5
g6
(I1
I0
tp11903
tp11904
Rp11905
ag0
(g5
g6
(I1
I0
tp11906
tp11907
Rp11908
ag0
(g5
g6
(I1
I0
tp11909
tp11910
Rp11911
ag0
(g5
g6
(I1
I0
tp11912
tp11913
Rp11914
ag0
(g5
g6
(I1
I0
tp11915
tp11916
Rp11917
ag0
(g5
g6
(I1
I0
tp11918
tp11919
Rp11920
ag0
(g5
g6
(I1
I0
tp11921
tp11922
Rp11923
ag0
(g5
g6
(I1
I0
tp11924
tp11925
Rp11926
ag0
(g5
g6
(I1
I0
tp11927
tp11928
Rp11929
ag0
(g5
g6
(I1
I0
tp11930
tp11931
Rp11932
ag0
(g5
g6
(I1
I0
tp11933
tp11934
Rp11935
ag0
(g5
g6
(I1
I0
tp11936
tp11937
Rp11938
ag0
(g5
g6
(I1
I0
tp11939
tp11940
Rp11941
ag0
(g5
g6
(I1
I0
tp11942
tp11943
Rp11944
ag0
(g5
g6
(I1
I0
tp11945
tp11946
Rp11947
ag0
(g5
g6
(I1
I0
tp11948
tp11949
Rp11950
ag0
(g5
g6
(I1
I0
tp11951
tp11952
Rp11953
ag0
(g5
g6
(I1
I0
tp11954
tp11955
Rp11956
ag0
(g5
g6
(I1
I0
tp11957
tp11958
Rp11959
ag0
(g5
g6
(I1
I0
tp11960
tp11961
Rp11962
ag0
(g5
g6
(I1
I0
tp11963
tp11964
Rp11965
ag0
(g5
g6
(I1
I0
tp11966
tp11967
Rp11968
ag0
(g5
g6
(I1
I0
tp11969
tp11970
Rp11971
aa(lp11972
g0
(g5
g6
(I1
I0
tp11973
tp11974
Rp11975
ag0
(g5
g6
(I1
I0
tp11976
tp11977
Rp11978
ag0
(g5
g6
(I1
I0
tp11979
tp11980
Rp11981
ag0
(g5
g6
(I1
I0
tp11982
tp11983
Rp11984
ag0
(g5
g6
(I1
I0
tp11985
tp11986
Rp11987
ag0
(g5
g6
(I1
I0
tp11988
tp11989
Rp11990
ag0
(g5
g6
(I1
I0
tp11991
tp11992
Rp11993
ag0
(g5
g6
(I1
I0
tp11994
tp11995
Rp11996
ag0
(g5
g6
(I1
I0
tp11997
tp11998
Rp11999
ag0
(g5
g6
(I1
I0
tp12000
tp12001
Rp12002
ag0
(g5
g6
(I1
I0
tp12003
tp12004
Rp12005
ag0
(g5
g6
(I1
I0
tp12006
tp12007
Rp12008
ag0
(g5
g6
(I1
I0
tp12009
tp12010
Rp12011
ag0
(g5
g6
(I1
I0
tp12012
tp12013
Rp12014
ag0
(g5
g6
(I1
I0
tp12015
tp12016
Rp12017
ag0
(g5
g6
(I1
I0
tp12018
tp12019
Rp12020
ag0
(g5
g6
(I1
I0
tp12021
tp12022
Rp12023
ag0
(g5
g6
(I1
I0
tp12024
tp12025
Rp12026
ag0
(g5
g6
(I1
I0
tp12027
tp12028
Rp12029
ag0
(g5
g6
(I1
I0
tp12030
tp12031
Rp12032
ag0
(g5
g6
(I1
I0
tp12033
tp12034
Rp12035
ag0
(g5
g6
(I1
I0
tp12036
tp12037
Rp12038
ag0
(g5
g6
(I1
I0
tp12039
tp12040
Rp12041
ag0
(g5
g6
(I1
I0
tp12042
tp12043
Rp12044
ag0
(g5
g6
(I1
I0
tp12045
tp12046
Rp12047
ag0
(g5
g6
(I1
I0
tp12048
tp12049
Rp12050
ag0
(g5
g6
(I1
I0
tp12051
tp12052
Rp12053
ag0
(g5
g6
(I1
I0
tp12054
tp12055
Rp12056
ag0
(g5
g6
(I1
I0
tp12057
tp12058
Rp12059
ag0
(g5
g6
(I1
I0
tp12060
tp12061
Rp12062
ag0
(g5
g6
(I1
I0
tp12063
tp12064
Rp12065
ag0
(g5
g6
(I1
I0
tp12066
tp12067
Rp12068
ag0
(g5
g6
(I1
I0
tp12069
tp12070
Rp12071
ag0
(g5
g6
(I1
I0
tp12072
tp12073
Rp12074
ag0
(g5
g6
(I1
I0
tp12075
tp12076
Rp12077
ag0
(g5
g6
(I1
I0
tp12078
tp12079
Rp12080
ag0
(g5
g6
(I1
I0
tp12081
tp12082
Rp12083
ag0
(g5
g6
(I1
I0
tp12084
tp12085
Rp12086
ag0
(g5
g6
(I1
I0
tp12087
tp12088
Rp12089
ag0
(g5
g6
(I1
I0
tp12090
tp12091
Rp12092
ag0
(g5
g6
(I1
I0
tp12093
tp12094
Rp12095
ag0
(g5
g6
(I1
I0
tp12096
tp12097
Rp12098
ag0
(g5
g6
(I1
I0
tp12099
tp12100
Rp12101
ag0
(g5
g6
(I1
I0
tp12102
tp12103
Rp12104
ag0
(g5
g6
(I1
I0
tp12105
tp12106
Rp12107
ag0
(g5
g6
(I1
I0
tp12108
tp12109
Rp12110
ag0
(g5
g6
(I1
I0
tp12111
tp12112
Rp12113
ag0
(g5
g6
(I1
I0
tp12114
tp12115
Rp12116
ag0
(g5
g6
(I1
I0
tp12117
tp12118
Rp12119
ag0
(g5
g6
(I1
I0
tp12120
tp12121
Rp12122
ag0
(g5
g6
(I1
I0
tp12123
tp12124
Rp12125
ag0
(g5
g6
(I1
I0
tp12126
tp12127
Rp12128
ag0
(g5
g6
(I1
I0
tp12129
tp12130
Rp12131
ag0
(g5
g6
(I1
I0
tp12132
tp12133
Rp12134
ag0
(g5
g6
(I1
I0
tp12135
tp12136
Rp12137
ag0
(g5
g6
(I1
I0
tp12138
tp12139
Rp12140
ag0
(g5
g6
(I1
I0
tp12141
tp12142
Rp12143
ag0
(g5
g6
(I1
I0
tp12144
tp12145
Rp12146
ag0
(g5
g6
(I1
I0
tp12147
tp12148
Rp12149
ag0
(g5
g6
(I1
I0
tp12150
tp12151
Rp12152
ag0
(g5
g6
(I1
I0
tp12153
tp12154
Rp12155
ag0
(g5
g6
(I1
I0
tp12156
tp12157
Rp12158
ag0
(g5
g6
(I1
I0
tp12159
tp12160
Rp12161
ag0
(g5
g6
(I1
I0
tp12162
tp12163
Rp12164
aa(lp12165
g0
(g5
g6
(I1
I0
tp12166
tp12167
Rp12168
ag0
(g5
g6
(I1
I0
tp12169
tp12170
Rp12171
ag0
(g5
g6
(I1
I0
tp12172
tp12173
Rp12174
ag0
(g5
g6
(I1
I0
tp12175
tp12176
Rp12177
ag0
(g5
g6
(I1
I0
tp12178
tp12179
Rp12180
ag0
(g5
g6
(I1
I0
tp12181
tp12182
Rp12183
ag0
(g5
g6
(I1
I0
tp12184
tp12185
Rp12186
ag0
(g5
g6
(I1
I0
tp12187
tp12188
Rp12189
ag0
(g5
g6
(I1
I0
tp12190
tp12191
Rp12192
ag0
(g5
g6
(I1
I0
tp12193
tp12194
Rp12195
ag0
(g5
g6
(I1
I0
tp12196
tp12197
Rp12198
ag0
(g5
g6
(I1
I0
tp12199
tp12200
Rp12201
ag0
(g5
g6
(I1
I0
tp12202
tp12203
Rp12204
ag0
(g5
g6
(I1
I0
tp12205
tp12206
Rp12207
ag0
(g5
g6
(I1
I0
tp12208
tp12209
Rp12210
ag0
(g5
g6
(I1
I0
tp12211
tp12212
Rp12213
ag0
(g5
g6
(I1
I0
tp12214
tp12215
Rp12216
ag0
(g5
g6
(I1
I0
tp12217
tp12218
Rp12219
ag0
(g5
g6
(I1
I0
tp12220
tp12221
Rp12222
ag0
(g5
g6
(I1
I0
tp12223
tp12224
Rp12225
ag0
(g5
g6
(I1
I0
tp12226
tp12227
Rp12228
ag0
(g5
g6
(I1
I0
tp12229
tp12230
Rp12231
ag0
(g5
g6
(I1
I0
tp12232
tp12233
Rp12234
ag0
(g5
g6
(I1
I0
tp12235
tp12236
Rp12237
ag0
(g5
g6
(I1
I0
tp12238
tp12239
Rp12240
ag0
(g5
g6
(I1
I0
tp12241
tp12242
Rp12243
ag0
(g5
g6
(I1
I0
tp12244
tp12245
Rp12246
ag0
(g5
g6
(I1
I0
tp12247
tp12248
Rp12249
ag0
(g5
g6
(I1
I0
tp12250
tp12251
Rp12252
ag0
(g5
g6
(I1
I0
tp12253
tp12254
Rp12255
ag0
(g5
g6
(I1
I0
tp12256
tp12257
Rp12258
ag0
(g5
g6
(I1
I0
tp12259
tp12260
Rp12261
ag0
(g5
g6
(I1
I0
tp12262
tp12263
Rp12264
ag0
(g5
g6
(I1
I0
tp12265
tp12266
Rp12267
ag0
(g5
g6
(I1
I0
tp12268
tp12269
Rp12270
ag0
(g5
g6
(I1
I0
tp12271
tp12272
Rp12273
ag0
(g5
g6
(I1
I0
tp12274
tp12275
Rp12276
ag0
(g5
g6
(I1
I0
tp12277
tp12278
Rp12279
ag0
(g5
g6
(I1
I0
tp12280
tp12281
Rp12282
ag0
(g5
g6
(I1
I0
tp12283
tp12284
Rp12285
ag0
(g5
g6
(I1
I0
tp12286
tp12287
Rp12288
ag0
(g5
g6
(I1
I0
tp12289
tp12290
Rp12291
ag0
(g5
g6
(I1
I0
tp12292
tp12293
Rp12294
ag0
(g5
g6
(I1
I0
tp12295
tp12296
Rp12297
ag0
(g5
g6
(I1
I0
tp12298
tp12299
Rp12300
ag0
(g5
g6
(I1
I0
tp12301
tp12302
Rp12303
ag0
(g5
g6
(I1
I0
tp12304
tp12305
Rp12306
ag0
(g5
g6
(I1
I0
tp12307
tp12308
Rp12309
ag0
(g5
g6
(I1
I0
tp12310
tp12311
Rp12312
ag0
(g5
g6
(I1
I0
tp12313
tp12314
Rp12315
ag0
(g5
g6
(I1
I0
tp12316
tp12317
Rp12318
ag0
(g5
g6
(I1
I0
tp12319
tp12320
Rp12321
ag0
(g5
g6
(I1
I0
tp12322
tp12323
Rp12324
ag0
(g5
g6
(I1
I0
tp12325
tp12326
Rp12327
ag0
(g5
g6
(I1
I0
tp12328
tp12329
Rp12330
ag0
(g5
g6
(I1
I0
tp12331
tp12332
Rp12333
ag0
(g5
g6
(I1
I0
tp12334
tp12335
Rp12336
ag0
(g5
g6
(I1
I0
tp12337
tp12338
Rp12339
ag0
(g5
g6
(I1
I0
tp12340
tp12341
Rp12342
ag0
(g5
g6
(I1
I0
tp12343
tp12344
Rp12345
ag0
(g5
g6
(I1
I0
tp12346
tp12347
Rp12348
ag0
(g5
g6
(I1
I0
tp12349
tp12350
Rp12351
ag0
(g5
g6
(I1
I0
tp12352
tp12353
Rp12354
ag0
(g5
g6
(I1
I0
tp12355
tp12356
Rp12357
aatp12358
Rp12359
(dp12360
S'_free_start_positions'
p12361
(lp12362
(I10
I10
tp12363
a(I10
I53
tp12364
a(I53
I53
tp12365
a(I53
I10
tp12366
asS'size'
p12367
(I64
I64
tp12368
sb.